(dp0
S'auto'
p1
(lp2
(dp3
S'num_runs'
p4
I131072
sS'total_sum'
p5
F10.0
sS'cycles'
p6
F842.677155
sS'flops_cycle'
p7
F6.645487
sS'size'
p8
I800
sasS'manual3'
p9
(lp10
(dp11
S'num_runs'
p12
I131072
sS'total_sum'
p13
F10.0
sS'cycles'
p14
F929.474274
sS'flops_cycle'
p15
F6.024911
sS'size'
p16
I800
sasS'base'
p17
(lp18
(dp19
S'num_runs'
p20
I65536
sS'total_sum'
p21
F10.0
sS'cycles'
p22
F2912.57077
sS'flops_cycle'
p23
F1.9227
sS'size'
p24
I800
sasS'manual'
p25
(lp26
(dp27
S'num_runs'
p28
I65536
sS'total_sum'
p29
F10.0
sS'cycles'
p30
F2922.041077
sS'flops_cycle'
p31
F1.916469
sS'size'
p32
I800
sasS'manual4'
p33
(lp34
(dp35
S'num_runs'
p36
I131072
sS'total_sum'
p37
F10.0
sS'cycles'
p38
F867.609406
sS'flops_cycle'
p39
F6.454517
sS'size'
p40
I800
sas.