(dp0
S'finalcode.c'
p1
(lp2
(dp3
S'cycles'
p4
F269638.234375
sS'total_sum'
p5
F67881243.37909
sS'matrix_size'
p6
I56
sS'num_runs'
p7
I512
sS'block_size'
p8
I56
sS'flops_cycle'
p9
F1.302605
sa(dp10
S'cycles'
p11
F2259810.234375
sS'total_sum'
p12
F1.4075905341071735e+21
sS'matrix_size'
p13
I112
sS'num_runs'
p14
I64
sS'block_size'
p15
I56
sS'flops_cycle'
p16
F1.243404
sa(dp17
S'cycles'
p18
F7653508.4375
sS'total_sum'
p19
F1.4098990535150363e+100
sS'matrix_size'
p20
I168
sS'num_runs'
p21
I16
sS'block_size'
p22
I56
sS'flops_cycle'
p23
F1.239074
sa(dp24
S'cycles'
p25
F20719573.875
sS'total_sum'
p26
F64886236.952102
sS'matrix_size'
p27
I224
sS'num_runs'
p28
I8
sS'block_size'
p29
I56
sS'flops_cycle'
p30
F1.084909
sa(dp31
S'cycles'
p32
F37916154.0
sS'total_sum'
p33
F60509874.276813
sS'matrix_size'
p34
I280
sS'num_runs'
p35
I4
sS'block_size'
p36
I56
sS'flops_cycle'
p37
F1.157923
sa(dp38
S'cycles'
p39
F63071051.5
sS'total_sum'
p40
F47604279.251158
sS'matrix_size'
p41
I336
sS'num_runs'
p42
I2
sS'block_size'
p43
I56
sS'flops_cycle'
p44
F1.202867
sa(dp45
S'cycles'
p46
F95306493.0
sS'total_sum'
p47
F75590401.73184
sS'matrix_size'
p48
I392
sS'num_runs'
p49
I2
sS'block_size'
p50
I56
sS'flops_cycle'
p51
F1.264054
sa(dp52
S'cycles'
p53
F150429902.0
sS'total_sum'
p54
F45160260.19867
sS'matrix_size'
p55
I448
sS'num_runs'
p56
I1
sS'block_size'
p57
I56
sS'flops_cycle'
p58
F1.195446
sa(dp59
S'cycles'
p60
F209014816.0
sS'total_sum'
p61
F64280666.703202
sS'matrix_size'
p62
I504
sS'num_runs'
p63
I1
sS'block_size'
p64
I56
sS'flops_cycle'
p65
F1.225024
sa(dp66
S'cycles'
p67
F293449681.0
sS'total_sum'
p68
F88032402.598325
sS'matrix_size'
p69
I560
sS'num_runs'
p70
I1
sS'block_size'
p71
I56
sS'flops_cycle'
p72
F1.196907
sa(dp73
S'cycles'
p74
F399216065.0
sS'total_sum'
p75
F117031251.24187
sS'matrix_size'
p76
I616
sS'num_runs'
p77
I1
sS'block_size'
p78
I56
sS'flops_cycle'
p79
F1.171019
sa(dp80
S'cycles'
p81
F528531191.0
sS'total_sum'
p82
F151931085.716645
sS'matrix_size'
p83
I672
sS'num_runs'
p84
I1
sS'block_size'
p85
I56
sS'flops_cycle'
p86
F1.148331
sa(dp87
S'cycles'
p88
F660325930.0
sS'total_sum'
p89
F193372924.221882
sS'matrix_size'
p90
I728
sS'num_runs'
p91
I1
sS'block_size'
p92
I56
sS'flops_cycle'
p93
F1.1686
sa(dp94
S'cycles'
p95
F849591043.0
sS'total_sum'
p96
F241455899.296086
sS'matrix_size'
p97
I784
sS'num_runs'
p98
I1
sS'block_size'
p99
I56
sS'flops_cycle'
p100
F1.134405
sa(dp101
S'cycles'
p102
F1045882024.0
sS'total_sum'
p103
F1.5986569867798024e+212
sS'matrix_size'
p104
I840
sS'num_runs'
p105
I1
sS'block_size'
p106
I56
sS'flops_cycle'
p107
F1.133405
sa(dp108
S'cycles'
p109
F1578643883.0
sS'total_sum'
p110
F360334619.908656
sS'matrix_size'
p111
I896
sS'num_runs'
p112
I1
sS'block_size'
p113
I56
sS'flops_cycle'
p114
F0.911318
sa(dp115
S'cycles'
p116
F1492546358.0
sS'total_sum'
p117
F432050342.197979
sS'matrix_size'
p118
I952
sS'num_runs'
p119
I1
sS'block_size'
p120
I56
sS'flops_cycle'
p121
F1.156147
sa(dp122
S'cycles'
p123
F1765365078.0
sS'total_sum'
p124
F512750542.433699
sS'matrix_size'
p125
I1008
sS'num_runs'
p126
I1
sS'block_size'
p127
I56
sS'flops_cycle'
p128
F1.160318
sa(dp129
S'cycles'
p130
F2082628077.0
sS'total_sum'
p131
F602679618.085741
sS'matrix_size'
p132
I1064
sS'num_runs'
p133
I1
sS'block_size'
p134
I56
sS'flops_cycle'
p135
F1.15676
sa(dp136
S'cycles'
p137
F2505930336.0
sS'total_sum'
p138
F1.0224222703780027e+282
sS'matrix_size'
p139
I1120
sS'num_runs'
p140
I1
sS'block_size'
p141
I56
sS'flops_cycle'
p142
F1.121283
sa(dp143
S'cycles'
p144
F3106872710.0
sS'total_sum'
p145
F4.469761621944506e+164
sS'matrix_size'
p146
I1176
sS'num_runs'
p147
I1
sS'block_size'
p148
I56
sS'flops_cycle'
p149
F1.046956
sa(dp150
S'cycles'
p151
F3352401798.0
sS'total_sum'
p152
F935189909.234293
sS'matrix_size'
p153
I1232
sS'num_runs'
p154
I1
sS'block_size'
p155
I56
sS'flops_cycle'
p156
F1.115594
sa(dp157
S'cycles'
p158
F3720008977.0
sS'total_sum'
p159
F1.0031603768462271e+222
sS'matrix_size'
p160
I1288
sS'num_runs'
p161
I1
sS'block_size'
p162
I56
sS'flops_cycle'
p163
F1.148771
sa(dp164
S'cycles'
p165
F4418816921.0
sS'total_sum'
p166
F1215728870.59778
sS'matrix_size'
p167
I1344
sS'num_runs'
p168
I1
sS'block_size'
p169
I56
sS'flops_cycle'
p170
F1.098808
sa(dp171
S'cycles'
p172
F4930844170.0
sS'total_sum'
p173
F1373658198.325405
sS'matrix_size'
p174
I1400
sS'num_runs'
p175
I1
sS'block_size'
p176
I56
sS'flops_cycle'
p177
F1.112994
sa(dp178
S'cycles'
p179
F5451329067.0
sS'total_sum'
p180
F1545102055.100537
sS'matrix_size'
p181
I1456
sS'num_runs'
p182
I1
sS'block_size'
p183
I56
sS'flops_cycle'
p184
F1.132431
sa(dp185
S'cycles'
p186
F6043697190.0
sS'total_sum'
p187
F1729565188.060319
sS'matrix_size'
p188
I1512
sS'num_runs'
p189
I1
sS'block_size'
p190
I56
sS'flops_cycle'
p191
F1.143886
sa(dp192
S'cycles'
p193
F7077786654.0
sS'total_sum'
p194
F1929124766.59411
sS'matrix_size'
p195
I1568
sS'num_runs'
p196
I1
sS'block_size'
p197
I56
sS'flops_cycle'
p198
F1.089358
sa(dp199
S'cycles'
p200
F8182823321.0
sS'total_sum'
p201
F2143296687.662414
sS'matrix_size'
p202
I1624
sS'num_runs'
p203
I1
sS'block_size'
p204
I56
sS'flops_cycle'
p205
F1.046851
sa(dp206
S'cycles'
p207
F8549598870.0
sS'total_sum'
p208
F2373798241.601759
sS'matrix_size'
p209
I1680
sS'num_runs'
p210
I1
sS'block_size'
p211
I56
sS'flops_cycle'
p212
F1.109206
sa(dp213
S'cycles'
p214
F10096700203.0
sS'total_sum'
p215
F6.129125138611956e+131
sS'matrix_size'
p216
I1736
sS'num_runs'
p217
I1
sS'block_size'
p218
I56
sS'flops_cycle'
p219
F1.036334
sa(dp220
S'cycles'
p221
F16829973231.0
sS'total_sum'
p222
F1.7365239581755495e+46
sS'matrix_size'
p223
I1792
sS'num_runs'
p224
I1
sS'block_size'
p225
I56
sS'flops_cycle'
p226
F0.68385
sa(dp227
S'cycles'
p228
F12502912009.0
sS'total_sum'
p229
F3157068030.781052
sS'matrix_size'
p230
I1848
sS'num_runs'
p231
I1
sS'block_size'
p232
I56
sS'flops_cycle'
p233
F1.009543
sa(dp234
S'cycles'
p235
F12909656336.0
sS'total_sum'
p236
F3454771632.87822
sS'matrix_size'
p237
I1904
sS'num_runs'
p238
I1
sS'block_size'
p239
I56
sS'flops_cycle'
p240
F1.069341
sa(dp241
S'cycles'
p242
F15122886883.0
sS'total_sum'
p243
F3768394272.624769
sS'matrix_size'
p244
I1960
sS'num_runs'
p245
I1
sS'block_size'
p246
I56
sS'flops_cycle'
p247
F0.99578
sasS'finalcode_176.c'
p248
(lp249
(dp250
S'cycles'
p251
F11676684.375
sS'total_sum'
p252
F64278818.440757
sS'matrix_size'
p253
I176
sS'num_runs'
p254
I16
sS'block_size'
p255
I176
sS'flops_cycle'
p256
F0.933788
sa(dp257
S'cycles'
p258
F109957093.0
sS'total_sum'
p259
F4.6203514519996416e+110
sS'matrix_size'
p260
I352
sS'num_runs'
p261
I1
sS'block_size'
p262
I176
sS'flops_cycle'
p263
F0.793295
sa(dp264
S'cycles'
p265
F335501488.0
sS'total_sum'
p266
F19431548640676.812
sS'matrix_size'
p267
I528
sS'num_runs'
p268
I1
sS'block_size'
p269
I176
sS'flops_cycle'
p270
F0.87748
sa(dp271
S'cycles'
p272
F957884229.0
sS'total_sum'
p273
F174734397.945356
sS'matrix_size'
p274
I704
sS'num_runs'
p275
I1
sS'block_size'
p276
I176
sS'flops_cycle'
p277
F0.728509
sa(dp278
S'cycles'
p279
F1593299268.0
sS'total_sum'
p280
F1.4909768030079605e+228
sS'matrix_size'
p281
I880
sS'num_runs'
p282
I1
sS'block_size'
p283
I176
sS'flops_cycle'
p284
F0.855422
sa(dp285
S'cycles'
p286
F3147655962.0
sS'total_sum'
p287
F7.752323811121857e+114
sS'matrix_size'
p288
I1056
sS'num_runs'
p289
I1
sS'block_size'
p290
I176
sS'flops_cycle'
p291
F0.748229
sa(dp292
S'cycles'
p293
F4402231955.0
sS'total_sum'
p294
F2.502237528510241e+51
sS'matrix_size'
p295
I1232
sS'num_runs'
p296
I1
sS'block_size'
p297
I176
sS'flops_cycle'
p298
F0.84955
sa(dp299
S'cycles'
p300
F8831703743.0
sS'total_sum'
p301
F7.366832197063272e+267
sS'matrix_size'
p302
I1408
sS'num_runs'
p303
I1
sS'block_size'
p304
I176
sS'flops_cycle'
p305
F0.632111
sa(dp306
S'cycles'
p307
F9391859080.0
sS'total_sum'
p308
F1.3154182197537335e+104
sS'matrix_size'
p309
I1584
sS'num_runs'
p310
I1
sS'block_size'
p311
I176
sS'flops_cycle'
p312
F0.846338
sa(dp313
S'cycles'
p314
F16820779852.0
sS'total_sum'
p315
F2728144781.849628
sS'matrix_size'
p316
I1760
sS'num_runs'
p317
I1
sS'block_size'
p318
I176
sS'flops_cycle'
p319
F0.648219
sa(dp320
S'cycles'
p321
F18224028530.0
sS'total_sum'
p322
F3628052728.501746
sS'matrix_size'
p323
I1936
sS'num_runs'
p324
I1
sS'block_size'
p325
I176
sS'flops_cycle'
p326
F0.796346
sas.