(dp0
S'finalcode.c'
p1
(lp2
(dp3
S'cycles'
p4
F237906.519531
sS'total_sum'
p5
F68068411.346482
sS'matrix_size'
p6
I56
sS'num_runs'
p7
I512
sS'block_size'
p8
I56
sS'flops_cycle'
p9
F1.476345
sa(dp10
S'cycles'
p11
F1910642.078125
sS'total_sum'
p12
F1.806167415463224e+143
sS'matrix_size'
p13
I112
sS'num_runs'
p14
I64
sS'block_size'
p15
I56
sS'flops_cycle'
p16
F1.470634
sa(dp17
S'cycles'
p18
F6535312.6875
sS'total_sum'
p19
F55754113.765266
sS'matrix_size'
p20
I168
sS'num_runs'
p21
I16
sS'block_size'
p22
I56
sS'flops_cycle'
p23
F1.45108
sa(dp24
S'cycles'
p25
F17527503.75
sS'total_sum'
p26
F8.30518182688078e+150
sS'matrix_size'
p27
I224
sS'num_runs'
p28
I8
sS'block_size'
p29
I56
sS'flops_cycle'
p30
F1.28249
sa(dp31
S'cycles'
p32
F32013104.25
sS'total_sum'
p33
F304280657572681.25
sS'matrix_size'
p34
I280
sS'num_runs'
p35
I4
sS'block_size'
p36
I56
sS'flops_cycle'
p37
F1.371438
sa(dp38
S'cycles'
p39
F53747686.0
sS'total_sum'
p40
F2.432712492817046e+254
sS'matrix_size'
p41
I336
sS'num_runs'
p42
I2
sS'block_size'
p43
I56
sS'flops_cycle'
p44
F1.411523
sa(dp45
S'cycles'
p46
F82792263.0
sS'total_sum'
p47
F2.0603670366513613e+262
sS'matrix_size'
p48
I392
sS'num_runs'
p49
I2
sS'block_size'
p50
I56
sS'flops_cycle'
p51
F1.455119
sa(dp52
S'cycles'
p53
F125604092.0
sS'total_sum'
p54
F1.787570023563718e+306
sS'matrix_size'
p55
I448
sS'num_runs'
p56
I1
sS'block_size'
p57
I56
sS'flops_cycle'
p58
F1.431727
sa(dp59
S'cycles'
p60
F182121806.0
sS'total_sum'
p61
F2.5346270071952853e+156
sS'matrix_size'
p62
I504
sS'num_runs'
p63
I1
sS'block_size'
p64
I56
sS'flops_cycle'
p65
F1.405917
sa(dp66
S'cycles'
p67
F255134423.0
sS'total_sum'
p68
F88003279.567075
sS'matrix_size'
p69
I560
sS'num_runs'
p70
I1
sS'block_size'
p71
I56
sS'flops_cycle'
p72
F1.376655
sa(dp73
S'cycles'
p74
F341335364.0
sS'total_sum'
p75
F117090268.564461
sS'matrix_size'
p76
I616
sS'num_runs'
p77
I1
sS'block_size'
p78
I56
sS'flops_cycle'
p79
F1.369591
sa(dp80
S'cycles'
p81
F445701283.0
sS'total_sum'
p82
F9.425674722458457e+102
sS'matrix_size'
p83
I672
sS'num_runs'
p84
I1
sS'block_size'
p85
I56
sS'flops_cycle'
p86
F1.361739
sa(dp87
S'cycles'
p88
F573061830.0
sS'total_sum'
p89
F5.3403562500985455e+169
sS'matrix_size'
p90
I728
sS'num_runs'
p91
I1
sS'block_size'
p92
I56
sS'flops_cycle'
p93
F1.346551
sa(dp94
S'cycles'
p95
F735100931.0
sS'total_sum'
p96
F241069078.941232
sS'matrix_size'
p97
I784
sS'num_runs'
p98
I1
sS'block_size'
p99
I56
sS'flops_cycle'
p100
F1.311086
sa(dp101
S'cycles'
p102
F932660868.0
sS'total_sum'
p103
F296424687.397649
sS'matrix_size'
p104
I840
sS'num_runs'
p105
I1
sS'block_size'
p106
I56
sS'flops_cycle'
p107
F1.270996
sa(dp108
S'cycles'
p109
F1378399485.0
sS'total_sum'
p110
F2.086455993148627e+133
sS'matrix_size'
p111
I896
sS'num_runs'
p112
I1
sS'block_size'
p113
I56
sS'flops_cycle'
p114
F1.043708
sa(dp115
S'cycles'
p116
F1318639350.0
sS'total_sum'
p117
F432304053.485784
sS'matrix_size'
p118
I952
sS'num_runs'
p119
I1
sS'block_size'
p120
I56
sS'flops_cycle'
p121
F1.308624
sa(dp122
S'cycles'
p123
F1534709587.0
sS'total_sum'
p124
F2.645188172617888e+52
sS'matrix_size'
p125
I1008
sS'num_runs'
p126
I1
sS'block_size'
p127
I56
sS'flops_cycle'
p128
F1.334705
sa(dp129
S'cycles'
p130
F1842545471.0
sS'total_sum'
p131
F2.534179642153753e+42
sS'matrix_size'
p132
I1064
sS'num_runs'
p133
I1
sS'block_size'
p134
I56
sS'flops_cycle'
p135
F1.307485
sa(dp136
S'cycles'
p137
F2296731368.0
sS'total_sum'
p138
F8.153343063442687e+86
sS'matrix_size'
p139
I1120
sS'num_runs'
p140
I1
sS'block_size'
p141
I56
sS'flops_cycle'
p142
F1.223415
sa(dp143
S'cycles'
p144
F2665882205.0
sS'total_sum'
p145
F813544388.470673
sS'matrix_size'
p146
I1176
sS'num_runs'
p147
I1
sS'block_size'
p148
I56
sS'flops_cycle'
p149
F1.220144
sa(dp150
S'cycles'
p151
F2898278131.0
sS'total_sum'
p152
F935541312.600912
sS'matrix_size'
p153
I1232
sS'num_runs'
p154
I1
sS'block_size'
p155
I56
sS'flops_cycle'
p156
F1.290393
sa(dp157
S'cycles'
p158
F3289545263.0
sS'total_sum'
p159
F1068528698.695748
sS'matrix_size'
p160
I1288
sS'num_runs'
p161
I1
sS'block_size'
p162
I56
sS'flops_cycle'
p163
F1.299097
sa(dp164
S'cycles'
p165
F3703641410.0
sS'total_sum'
p166
F6.695013054667561e+202
sS'matrix_size'
p167
I1344
sS'num_runs'
p168
I1
sS'block_size'
p169
I56
sS'flops_cycle'
p170
F1.310988
sa(dp171
S'cycles'
p172
F4290873518.0
sS'total_sum'
p173
F1.719758104615777e+111
sS'matrix_size'
p174
I1400
sS'num_runs'
p175
I1
sS'block_size'
p176
I56
sS'flops_cycle'
p177
F1.278994
sa(dp178
S'cycles'
p179
F4704866290.0
sS'total_sum'
p180
F1543873512.546421
sS'matrix_size'
p181
I1456
sS'num_runs'
p182
I1
sS'block_size'
p183
I56
sS'flops_cycle'
p184
F1.3121
sa(dp185
S'cycles'
p186
F5366640046.0
sS'total_sum'
p187
F3.4349694259375446e+243
sS'matrix_size'
p188
I1512
sS'num_runs'
p189
I1
sS'block_size'
p190
I56
sS'flops_cycle'
p191
F1.288199
sa(dp192
S'cycles'
p193
F5982811103.0
sS'total_sum'
p194
F1929646115.864692
sS'matrix_size'
p195
I1568
sS'num_runs'
p196
I1
sS'block_size'
p197
I56
sS'flops_cycle'
p198
F1.288733
sa(dp199
S'cycles'
p200
F6982768189.0
sS'total_sum'
p201
F2143396220.983014
sS'matrix_size'
p202
I1624
sS'num_runs'
p203
I1
sS'block_size'
p204
I56
sS'flops_cycle'
p205
F1.226762
sa(dp206
S'cycles'
p207
F7383165796.0
sS'total_sum'
p208
F2372235526.10413
sS'matrix_size'
p209
I1680
sS'num_runs'
p210
I1
sS'block_size'
p211
I56
sS'flops_cycle'
p212
F1.284444
sa(dp213
S'cycles'
p214
F8737882312.0
sS'total_sum'
p215
F2617083155.320014
sS'matrix_size'
p216
I1736
sS'num_runs'
p217
I1
sS'block_size'
p218
I56
sS'flops_cycle'
p219
F1.197493
sa(dp220
S'cycles'
p221
F13835043070.0
sS'total_sum'
p222
F2.8575041550244433e+153
sS'matrix_size'
p223
I1792
sS'num_runs'
p224
I1
sS'block_size'
p225
I56
sS'flops_cycle'
p226
F0.831885
sa(dp227
S'cycles'
p228
F13517025972.0
sS'total_sum'
p229
F3157082080.933767
sS'matrix_size'
p230
I1848
sS'num_runs'
p231
I1
sS'block_size'
p232
I56
sS'flops_cycle'
p233
F0.933802
sa(dp234
S'cycles'
p235
F11164671989.0
sS'total_sum'
p236
F3454621004.385293
sS'matrix_size'
p237
I1904
sS'num_runs'
p238
I1
sS'block_size'
p239
I56
sS'flops_cycle'
p240
F1.236474
sa(dp241
S'cycles'
p242
F12949439744.0
sS'total_sum'
p243
F3.2637296328803766e+46
sS'matrix_size'
p244
I1960
sS'num_runs'
p245
I1
sS'block_size'
p246
I56
sS'flops_cycle'
p247
F1.162913
sasS'code0.c'
p248
(lp249
(dp250
S'cycles'
p251
F25.965702
sS'total_sum'
p252
F33796823.479524
sS'matrix_size'
p253
I2
sS'num_runs'
p254
I4194304
sS'block_size'
p255
I2
sS'flops_cycle'
p256
F0.616197
sa(dp257
S'cycles'
p258
F146.198052
sS'total_sum'
p259
F47652368.300696
sS'matrix_size'
p260
I4
sS'num_runs'
p261
I1048576
sS'block_size'
p262
I2
sS'flops_cycle'
p263
F0.875525
sa(dp264
S'cycles'
p265
F488.962708
sS'total_sum'
p266
F2.7028500643704173e+236
sS'matrix_size'
p267
I6
sS'num_runs'
p268
I262144
sS'block_size'
p269
I2
sS'flops_cycle'
p270
F0.883503
sa(dp271
S'cycles'
p272
F1167.78463
sS'total_sum'
p273
F7.439717628563704e+61
sS'matrix_size'
p274
I8
sS'num_runs'
p275
I131072
sS'block_size'
p276
I2
sS'flops_cycle'
p277
F0.876874
sa(dp278
S'cycles'
p279
F2300.420868
sS'total_sum'
p280
F2.9703526348124555e+50
sS'matrix_size'
p281
I10
sS'num_runs'
p282
I65536
sS'block_size'
p283
I2
sS'flops_cycle'
p284
F0.869406
sa(dp285
S'cycles'
p286
F4066.659027
sS'total_sum'
p287
F42676671.974796
sS'matrix_size'
p288
I12
sS'num_runs'
p289
I32768
sS'block_size'
p290
I2
sS'flops_cycle'
p291
F0.849838
sa(dp292
S'cycles'
p293
F6548.496338
sS'total_sum'
p294
F3.453264749700574e+173
sS'matrix_size'
p295
I14
sS'num_runs'
p296
I16384
sS'block_size'
p297
I2
sS'flops_cycle'
p298
F0.838055
sa(dp299
S'cycles'
p300
F14123.999146
sS'total_sum'
p301
F26081601.650488
sS'matrix_size'
p302
I16
sS'num_runs'
p303
I8192
sS'block_size'
p304
I2
sS'flops_cycle'
p305
F0.580006
sa(dp306
S'cycles'
p307
F23782.889038
sS'total_sum'
p308
F40974615.205223
sS'matrix_size'
p309
I18
sS'num_runs'
p310
I8192
sS'block_size'
p311
I2
sS'flops_cycle'
p312
F0.490437
sa(dp313
S'cycles'
p314
F32427.979004
sS'total_sum'
p315
F27188547.184057
sS'matrix_size'
p316
I20
sS'num_runs'
p317
I4096
sS'block_size'
p318
I2
sS'flops_cycle'
p319
F0.493401
sa(dp320
S'cycles'
p321
F42982.480713
sS'total_sum'
p322
F1.5133426560217206e+52
sS'matrix_size'
p323
I22
sS'num_runs'
p324
I4096
sS'block_size'
p325
I2
sS'flops_cycle'
p326
F0.495458
sa(dp327
S'cycles'
p328
F55602.570312
sS'total_sum'
p329
F21846311.677404
sS'matrix_size'
p330
I24
sS'num_runs'
p331
I2048
sS'block_size'
p332
I2
sS'flops_cycle'
p333
F0.497243
sa(dp334
S'cycles'
p335
F70544.574219
sS'total_sum'
p336
F27556839.118463
sS'matrix_size'
p337
I26
sS'num_runs'
p338
I2048
sS'block_size'
p339
I2
sS'flops_cycle'
p340
F0.498295
sa(dp341
S'cycles'
p342
F88526.474609
sS'total_sum'
p343
F33937002.774086
sS'matrix_size'
p344
I28
sS'num_runs'
p345
I2048
sS'block_size'
p346
I2
sS'flops_cycle'
p347
F0.495942
sa(dp348
S'cycles'
p349
F108750.736328
sS'total_sum'
p350
F2.0079945955207658e+253
sS'matrix_size'
p351
I30
sS'num_runs'
p352
I1024
sS'block_size'
p353
I2
sS'flops_cycle'
p354
F0.496548
sa(dp355
S'cycles'
p356
F134055.211914
sS'total_sum'
p357
F24417335.663346
sS'matrix_size'
p358
I32
sS'num_runs'
p359
I1024
sS'block_size'
p360
I2
sS'flops_cycle'
p361
F0.488873
sa(dp362
S'cycles'
p363
F170359.850586
sS'total_sum'
p364
F29634827.961287
sS'matrix_size'
p365
I34
sS'num_runs'
p366
I1024
sS'block_size'
p367
I2
sS'flops_cycle'
p368
F0.461423
sa(dp369
S'cycles'
p370
F186053.246094
sS'total_sum'
p371
F9.996871372153575e+307
sS'matrix_size'
p372
I36
sS'num_runs'
p373
I1024
sS'block_size'
p374
I2
sS'flops_cycle'
p375
F0.501534
sa(dp376
S'cycles'
p377
F250334.232422
sS'total_sum'
p378
F2.6641671559025354e+51
sS'matrix_size'
p379
I38
sS'num_runs'
p380
I512
sS'block_size'
p381
I2
sS'flops_cycle'
p382
F0.43839
sa(dp383
S'cycles'
p384
F291665.138672
sS'total_sum'
p385
F24319213.305433
sS'matrix_size'
p386
I40
sS'num_runs'
p387
I512
sS'block_size'
p388
I2
sS'flops_cycle'
p389
F0.438859
sa(dp390
S'cycles'
p391
F334643.445312
sS'total_sum'
p392
F2.1943108555809264e+262
sS'matrix_size'
p393
I42
sS'num_runs'
p394
I512
sS'block_size'
p395
I2
sS'flops_cycle'
p396
F0.442788
sa(dp397
S'cycles'
p398
F383095.378906
sS'total_sum'
p399
F32496670.290691
sS'matrix_size'
p400
I44
sS'num_runs'
p401
I512
sS'block_size'
p402
I2
sS'flops_cycle'
p403
F0.444714
sa(dp404
S'cycles'
p405
F436147.878906
sS'total_sum'
p406
F18715961.14153
sS'matrix_size'
p407
I46
sS'num_runs'
p408
I256
sS'block_size'
p409
I2
sS'flops_cycle'
p410
F0.446344
sa(dp411
S'cycles'
p412
F501063.3125
sS'total_sum'
p413
F21205623.346411
sS'matrix_size'
p414
I48
sS'num_runs'
p415
I256
sS'block_size'
p416
I2
sS'flops_cycle'
p417
F0.441429
sa(dp418
S'cycles'
p419
F555679.058594
sS'total_sum'
p420
F5.767174899265384e+74
sS'matrix_size'
p421
I50
sS'num_runs'
p422
I256
sS'block_size'
p423
I2
sS'flops_cycle'
p424
F0.4499
sa(dp425
S'cycles'
p426
F621129.207031
sS'total_sum'
p427
F3.028475896672672e+57
sS'matrix_size'
p428
I52
sS'num_runs'
p429
I256
sS'block_size'
p430
I2
sS'flops_cycle'
p431
F0.45275
sa(dp432
S'cycles'
p433
F692930.074219
sS'total_sum'
p434
F30192283.778345
sS'matrix_size'
p435
I54
sS'num_runs'
p436
I256
sS'block_size'
p437
I2
sS'flops_cycle'
p438
F0.454487
sa(dp439
S'cycles'
p440
F769681.128906
sS'total_sum'
p441
F33611728.979072
sS'matrix_size'
p442
I56
sS'num_runs'
p443
I256
sS'block_size'
p444
I2
sS'flops_cycle'
p445
F0.456334
sa(dp446
S'cycles'
p447
F853420.460938
sS'total_sum'
p448
F18427340.688245
sS'matrix_size'
p449
I58
sS'num_runs'
p450
I128
sS'block_size'
p451
I2
sS'flops_cycle'
p452
F0.457247
sa(dp453
S'cycles'
p454
F945757.617188
sS'total_sum'
p455
F3.840226542620781e+137
sS'matrix_size'
p456
I60
sS'num_runs'
p457
I128
sS'block_size'
p458
I2
sS'flops_cycle'
p459
F0.456777
sa(dp460
S'cycles'
p461
F1062690.71875
sS'total_sum'
p462
F4.277883606095045e+100
sS'matrix_size'
p463
I62
sS'num_runs'
p464
I128
sS'block_size'
p465
I2
sS'flops_cycle'
p466
F0.448537
sa(dp467
S'cycles'
p468
F1184711.40625
sS'total_sum'
p469
F7.531864131502905e+131
sS'matrix_size'
p470
I64
sS'num_runs'
p471
I128
sS'block_size'
p472
I2
sS'flops_cycle'
p473
F0.442545
sa(dp474
S'cycles'
p475
F1368799.289062
sS'total_sum'
p476
F30498355.741617
sS'matrix_size'
p477
I68
sS'num_runs'
p478
I128
sS'block_size'
p479
I2
sS'flops_cycle'
p480
F0.459427
sa(dp481
S'cycles'
p482
F1608384.28125
sS'total_sum'
p483
F18007186.464519
sS'matrix_size'
p484
I72
sS'num_runs'
p485
I64
sS'block_size'
p486
I2
sS'flops_cycle'
p487
F0.464128
sa(dp488
S'cycles'
p489
F1880470.78125
sS'total_sum'
p490
F21153918.480796
sS'matrix_size'
p491
I76
sS'num_runs'
p492
I64
sS'block_size'
p493
I2
sS'flops_cycle'
p494
F0.466879
sa(dp495
S'cycles'
p496
F2231005.34375
sS'total_sum'
p497
F5.8366983085190225e+130
sS'matrix_size'
p498
I80
sS'num_runs'
p499
I64
sS'block_size'
p500
I2
sS'flops_cycle'
p501
F0.458986
sa(dp502
S'cycles'
p503
F2521317.578125
sS'total_sum'
p504
F2.6561659329195625e+60
sS'matrix_size'
p505
I84
sS'num_runs'
p506
I64
sS'block_size'
p507
I2
sS'flops_cycle'
p508
F0.470154
sa(dp509
S'cycles'
p510
F2897781.234375
sS'total_sum'
p511
F5.566718903736405e+185
sS'matrix_size'
p512
I88
sS'num_runs'
p513
I64
sS'block_size'
p514
I2
sS'flops_cycle'
p515
F0.470341
sa(dp516
S'cycles'
p517
F3324606.71875
sS'total_sum'
p518
F9.096739276917307e+37
sS'matrix_size'
p519
I92
sS'num_runs'
p520
I32
sS'block_size'
p521
I2
sS'flops_cycle'
p522
F0.468439
sa(dp523
S'cycles'
p524
F3835263.4375
sS'total_sum'
p525
F20761951.760048
sS'matrix_size'
p526
I96
sS'num_runs'
p527
I32
sS'block_size'
p528
I2
sS'flops_cycle'
p529
F0.461369
sa(dp530
S'cycles'
p531
F4248431.4375
sS'total_sum'
p532
F9.192398341428222e+112
sS'matrix_size'
p533
I100
sS'num_runs'
p534
I32
sS'block_size'
p535
I2
sS'flops_cycle'
p536
F0.470762
sa(dp537
S'cycles'
p538
F4730701.53125
sS'total_sum'
p539
F9.507623865726974e+135
sS'matrix_size'
p540
I104
sS'num_runs'
p541
I32
sS'block_size'
p542
I2
sS'flops_cycle'
p543
F0.475559
sa(dp544
S'cycles'
p545
F5271930.125
sS'total_sum'
p546
F4.263242035513254e+102
sS'matrix_size'
p547
I108
sS'num_runs'
p548
I32
sS'block_size'
p549
I2
sS'flops_cycle'
p550
F0.477894
sa(dp551
S'cycles'
p552
F6006074.03125
sS'total_sum'
p553
F4.026392225142569e+100
sS'matrix_size'
p554
I112
sS'num_runs'
p555
I32
sS'block_size'
p556
I2
sS'flops_cycle'
p557
F0.467836
sa(dp558
S'cycles'
p559
F6518362.875
sS'total_sum'
p560
F1.1662400856947196e+166
sS'matrix_size'
p561
I116
sS'num_runs'
p562
I16
sS'block_size'
p563
I2
sS'flops_cycle'
p564
F0.478923
sa(dp565
S'cycles'
p566
F7230969.6875
sS'total_sum'
p567
F20361387.04382
sS'matrix_size'
p568
I120
sS'num_runs'
p569
I16
sS'block_size'
p570
I2
sS'flops_cycle'
p571
F0.477944
sa(dp572
S'cycles'
p573
F8030126.9375
sS'total_sum'
p574
F3.896246287342846e+165
sS'matrix_size'
p575
I124
sS'num_runs'
p576
I16
sS'block_size'
p577
I2
sS'flops_cycle'
p578
F0.474868
sa(dp579
S'cycles'
p580
F1182431.007812
sS'total_sum'
p581
F25043412.072569
sS'matrix_size'
p582
I64
sS'num_runs'
p583
I128
sS'block_size'
p584
I2
sS'flops_cycle'
p585
F0.443398
sa(dp586
S'cycles'
p587
F2231803.640625
sS'total_sum'
p588
F5.694123319187282e+298
sS'matrix_size'
p589
I80
sS'num_runs'
p590
I64
sS'block_size'
p591
I2
sS'flops_cycle'
p592
F0.458822
sa(dp593
S'cycles'
p594
F3824998.75
sS'total_sum'
p595
F21051773.602487
sS'matrix_size'
p596
I96
sS'num_runs'
p597
I32
sS'block_size'
p598
I2
sS'flops_cycle'
p599
F0.462607
sa(dp600
S'cycles'
p601
F5994788.625
sS'total_sum'
p602
F8.62191851595619e+124
sS'matrix_size'
p603
I112
sS'num_runs'
p604
I32
sS'block_size'
p605
I2
sS'flops_cycle'
p606
F0.468716
sa(dp607
S'cycles'
p608
F12782210.625
sS'total_sum'
p609
F1.3332944375046784e+262
sS'matrix_size'
p610
I128
sS'num_runs'
p611
I8
sS'block_size'
p612
I2
sS'flops_cycle'
p613
F0.328136
sa(dp614
S'cycles'
p615
F13644842.875
sS'total_sum'
p616
F1.1398364284629563e+32
sS'matrix_size'
p617
I144
sS'num_runs'
p618
I8
sS'block_size'
p619
I2
sS'flops_cycle'
p620
F0.437672
sa(dp621
S'cycles'
p622
F21371196.75
sS'total_sum'
p623
F23526901.723181
sS'matrix_size'
p624
I160
sS'num_runs'
p625
I8
sS'block_size'
p626
I2
sS'flops_cycle'
p627
F0.38332
sa(dp628
S'cycles'
p629
F25573795.75
sS'total_sum'
p630
F5.125058398882991e+216
sS'matrix_size'
p631
I176
sS'num_runs'
p632
I4
sS'block_size'
p633
I2
sS'flops_cycle'
p634
F0.426356
sa(dp635
S'cycles'
p636
F41851287.0
sS'total_sum'
p637
F19448136.318363
sS'matrix_size'
p638
I192
sS'num_runs'
p639
I4
sS'block_size'
p640
I2
sS'flops_cycle'
p641
F0.33824
sa(dp642
S'cycles'
p643
F44479874.75
sS'total_sum'
p644
F1.0223239236489175e+238
sS'matrix_size'
p645
I208
sS'num_runs'
p646
I4
sS'block_size'
p647
I2
sS'flops_cycle'
p648
F0.404628
sa(dp649
S'cycles'
p650
F63818789.5
sS'total_sum'
p651
F14072739.051214
sS'matrix_size'
p652
I224
sS'num_runs'
p653
I2
sS'block_size'
p654
I2
sS'flops_cycle'
p655
F0.352229
sa(dp656
S'cycles'
p657
F70148576.0
sS'total_sum'
p658
F17338611.072859
sS'matrix_size'
p659
I240
sS'num_runs'
p660
I2
sS'block_size'
p661
I2
sS'flops_cycle'
p662
F0.394135
sa(dp663
S'cycles'
p664
F137363138.0
sS'total_sum'
p665
F8480218.492693
sS'matrix_size'
p666
I256
sS'num_runs'
p667
I1
sS'block_size'
p668
I2
sS'flops_cycle'
p669
F0.244275
sa(dp670
S'cycles'
p671
F109192856.0
sS'total_sum'
p672
F2.3942018071764217e+107
sS'matrix_size'
p673
I272
sS'num_runs'
p674
I1
sS'block_size'
p675
I2
sS'flops_cycle'
p676
F0.368589
sa(dp677
S'cycles'
p678
F137845593.0
sS'total_sum'
p679
F4.359981179495116e+62
sS'matrix_size'
p680
I288
sS'num_runs'
p681
I1
sS'block_size'
p682
I2
sS'flops_cycle'
p683
F0.346589
sa(dp684
S'cycles'
p685
F158304224.0
sS'total_sum'
p686
F1.7542224773357427e+159
sS'matrix_size'
p687
I304
sS'num_runs'
p688
I1
sS'block_size'
p689
I2
sS'flops_cycle'
p690
F0.354943
sa(dp691
S'cycles'
p692
F209542108.0
sS'total_sum'
p693
F7.006467332691488e+254
sS'matrix_size'
p694
I320
sS'num_runs'
p695
I1
sS'block_size'
p696
I2
sS'flops_cycle'
p697
F0.312758
sa(dp698
S'cycles'
p699
F213930196.0
sS'total_sum'
p700
F19111740.152562
sS'matrix_size'
p701
I336
sS'num_runs'
p702
I1
sS'block_size'
p703
I2
sS'flops_cycle'
p704
F0.35463
sa(dp705
S'cycles'
p706
F252374462.0
sS'total_sum'
p707
F6.219463586972086e+195
sS'matrix_size'
p708
I352
sS'num_runs'
p709
I1
sS'block_size'
p710
I2
sS'flops_cycle'
p711
F0.345631
sa(dp712
S'cycles'
p713
F281367635.0
sS'total_sum'
p714
F25083292.442334
sS'matrix_size'
p715
I368
sS'num_runs'
p716
I1
sS'block_size'
p717
I2
sS'flops_cycle'
p718
F0.354241
sa(dp719
S'cycles'
p720
F420029953.0
sS'total_sum'
p721
F28411689.45032
sS'matrix_size'
p722
I384
sS'num_runs'
p723
I1
sS'block_size'
p724
I2
sS'flops_cycle'
p725
F0.269615
sa(dp726
S'cycles'
p727
F361363792.0
sS'total_sum'
p728
F32123921.085972
sS'matrix_size'
p729
I400
sS'num_runs'
p730
I1
sS'block_size'
p731
I2
sS'flops_cycle'
p732
F0.354214
sa(dp733
S'cycles'
p734
F426855516.0
sS'total_sum'
p735
F4.439059198760121e+203
sS'matrix_size'
p736
I416
sS'num_runs'
p737
I1
sS'block_size'
p738
I2
sS'flops_cycle'
p739
F0.33731
sa(dp740
S'cycles'
p741
F455394212.0
sS'total_sum'
p742
F3.1787900999591177e+265
sS'matrix_size'
p743
I432
sS'num_runs'
p744
I1
sS'block_size'
p745
I2
sS'flops_cycle'
p746
F0.354074
sa(dp747
S'cycles'
p748
F598107804.0
sS'total_sum'
p749
F1.9934757341375416e+267
sS'matrix_size'
p750
I448
sS'num_runs'
p751
I1
sS'block_size'
p752
I2
sS'flops_cycle'
p753
F0.300666
sa(dp754
S'cycles'
p755
F568357678.0
sS'total_sum'
p756
F50082813.911311
sS'matrix_size'
p757
I464
sS'num_runs'
p758
I1
sS'block_size'
p759
I2
sS'flops_cycle'
p760
F0.35153
sa(dp761
S'cycles'
p762
F678349232.0
sS'total_sum'
p763
F2.5639763886264642e+126
sS'matrix_size'
p764
I480
sS'num_runs'
p765
I1
sS'block_size'
p766
I2
sS'flops_cycle'
p767
F0.326062
sa(dp768
S'cycles'
p769
F715909523.0
sS'total_sum'
p770
F4.308341569054885e+85
sS'matrix_size'
p771
I496
sS'num_runs'
p772
I1
sS'block_size'
p773
I2
sS'flops_cycle'
p774
F0.340892
sa(dp775
S'cycles'
p776
F1480884512.0
sS'total_sum'
p777
F67302452.388156
sS'matrix_size'
p778
I512
sS'num_runs'
p779
I1
sS'block_size'
p780
I2
sS'flops_cycle'
p781
F0.181267
sa(dp782
S'cycles'
p783
F7111243339.0
sS'total_sum'
p784
F131561882.812722
sS'matrix_size'
p785
I640
sS'num_runs'
p786
I1
sS'block_size'
p787
I2
sS'flops_cycle'
p788
F0.073727
sa(dp789
S'cycles'
p790
F14426348323.0
sS'total_sum'
p791
F226803825.434234
sS'matrix_size'
p792
I768
sS'num_runs'
p793
I1
sS'block_size'
p794
I2
sS'flops_cycle'
p795
F0.0628
sa(dp796
S'cycles'
p797
F22822102739.0
sS'total_sum'
p798
F360348511.890749
sS'matrix_size'
p799
I896
sS'num_runs'
p800
I1
sS'block_size'
p801
I2
sS'flops_cycle'
p802
F0.063037
sa(dp803
S'cycles'
p804
F33258476441.0
sS'total_sum'
p805
F1.3302997666882448e+76
sS'matrix_size'
p806
I1024
sS'num_runs'
p807
I1
sS'block_size'
p808
I2
sS'flops_cycle'
p809
F0.06457
sa(dp810
S'cycles'
p811
F48216279666.0
sS'total_sum'
p812
F1.788071850183855e+270
sS'matrix_size'
p813
I1152
sS'num_runs'
p814
I1
sS'block_size'
p815
I2
sS'flops_cycle'
p816
F0.063415
sa(dp817
S'cycles'
p818
F69477976343.0
sS'total_sum'
p819
F1049389813.295907
sS'matrix_size'
p820
I1280
sS'num_runs'
p821
I1
sS'block_size'
p822
I2
sS'flops_cycle'
p823
F0.060369
sa(dp824
S'cycles'
p825
F96731564136.0
sS'total_sum'
p826
F5.439381362714388e+254
sS'matrix_size'
p827
I1408
sS'num_runs'
p828
I1
sS'block_size'
p829
I2
sS'flops_cycle'
p830
F0.057712
sa(dp831
S'cycles'
p832
F134422993854.0
sS'total_sum'
p833
F1.1399427930454481e+130
sS'matrix_size'
p834
I1536
sS'num_runs'
p835
I1
sS'block_size'
p836
I2
sS'flops_cycle'
p837
F0.053918
sas.