(dp0
S'finalcode.c'
p1
(lp2
(dp3
S'cycles'
p4
F269730.480469
sS'total_sum'
p5
F8.834598530878968e+86
sS'matrix_size'
p6
I56
sS'num_runs'
p7
I512
sS'block_size'
p8
I56
sS'flops_cycle'
p9
F1.302159
sa(dp10
S'cycles'
p11
F2259467.5625
sS'total_sum'
p12
F5.948376652706872e+130
sS'matrix_size'
p13
I112
sS'num_runs'
p14
I64
sS'block_size'
p15
I56
sS'flops_cycle'
p16
F1.243592
sa(dp17
S'cycles'
p18
F7651417.4375
sS'total_sum'
p19
F55205045.834432
sS'matrix_size'
p20
I168
sS'num_runs'
p21
I16
sS'block_size'
p22
I56
sS'flops_cycle'
p23
F1.239413
sa(dp24
S'cycles'
p25
F20708879.0
sS'total_sum'
p26
F1.8158964206032275e+283
sS'matrix_size'
p27
I224
sS'num_runs'
p28
I8
sS'block_size'
p29
I56
sS'flops_cycle'
p30
F1.085469
sa(dp31
S'cycles'
p32
F37912747.75
sS'total_sum'
p33
F1.903900615162329e+227
sS'matrix_size'
p34
I280
sS'num_runs'
p35
I4
sS'block_size'
p36
I56
sS'flops_cycle'
p37
F1.158027
sa(dp38
S'cycles'
p39
F62905163.0
sS'total_sum'
p40
F6.202369793535592e+96
sS'matrix_size'
p41
I336
sS'num_runs'
p42
I2
sS'block_size'
p43
I56
sS'flops_cycle'
p44
F1.20604
sa(dp45
S'cycles'
p46
F95199898.0
sS'total_sum'
p47
F75227348.677214
sS'matrix_size'
p48
I392
sS'num_runs'
p49
I2
sS'block_size'
p50
I56
sS'flops_cycle'
p51
F1.26547
sa(dp52
S'cycles'
p53
F149937575.0
sS'total_sum'
p54
F3.4533386966275765e+168
sS'matrix_size'
p55
I448
sS'num_runs'
p56
I1
sS'block_size'
p57
I56
sS'flops_cycle'
p58
F1.199371
sa(dp59
S'cycles'
p60
F208544475.0
sS'total_sum'
p61
F1.653394825070577e+162
sS'matrix_size'
p62
I504
sS'num_runs'
p63
I1
sS'block_size'
p64
I56
sS'flops_cycle'
p65
F1.227787
sa(dp66
S'cycles'
p67
F294151194.0
sS'total_sum'
p68
F87872404.212091
sS'matrix_size'
p69
I560
sS'num_runs'
p70
I1
sS'block_size'
p71
I56
sS'flops_cycle'
p72
F1.194053
sa(dp73
S'cycles'
p74
F397215714.0
sS'total_sum'
p75
F117056214.630158
sS'matrix_size'
p76
I616
sS'num_runs'
p77
I1
sS'block_size'
p78
I56
sS'flops_cycle'
p79
F1.176917
sa(dp80
S'cycles'
p81
F526571046.0
sS'total_sum'
p82
F9.544565307344897e+103
sS'matrix_size'
p83
I672
sS'num_runs'
p84
I1
sS'block_size'
p85
I56
sS'flops_cycle'
p86
F1.152606
sa(dp87
S'cycles'
p88
F667814022.0
sS'total_sum'
p89
F193111818.098422
sS'matrix_size'
p90
I728
sS'num_runs'
p91
I1
sS'block_size'
p92
I56
sS'flops_cycle'
p93
F1.155496
sa(dp94
S'cycles'
p95
F848292832.0
sS'total_sum'
p96
F241316352.470798
sS'matrix_size'
p97
I784
sS'num_runs'
p98
I1
sS'block_size'
p99
I56
sS'flops_cycle'
p100
F1.136141
sa(dp101
S'cycles'
p102
F1043049139.0
sS'total_sum'
p103
F5.476453679272312e+70
sS'matrix_size'
p104
I840
sS'num_runs'
p105
I1
sS'block_size'
p106
I56
sS'flops_cycle'
p107
F1.136483
sa(dp108
S'cycles'
p109
F1701442290.0
sS'total_sum'
p110
F360088793.000591
sS'matrix_size'
p111
I896
sS'num_runs'
p112
I1
sS'block_size'
p113
I56
sS'flops_cycle'
p114
F0.845545
sa(dp115
S'cycles'
p116
F1668671136.0
sS'total_sum'
p117
F5.145329446512995e+108
sS'matrix_size'
p118
I952
sS'num_runs'
p119
I1
sS'block_size'
p120
I56
sS'flops_cycle'
p121
F1.034118
sa(dp122
S'cycles'
p123
F1958160630.0
sS'total_sum'
p124
F512392247.493551
sS'matrix_size'
p125
I1008
sS'num_runs'
p126
I1
sS'block_size'
p127
I56
sS'flops_cycle'
p128
F1.046076
sa(dp129
S'cycles'
p130
F2099793838.0
sS'total_sum'
p131
F602893911.356988
sS'matrix_size'
p132
I1064
sS'num_runs'
p133
I1
sS'block_size'
p134
I56
sS'flops_cycle'
p135
F1.147303
sa(dp136
S'cycles'
p137
F2523199641.0
sS'total_sum'
p138
F9.45649057635491e+100
sS'matrix_size'
p139
I1120
sS'num_runs'
p140
I1
sS'block_size'
p141
I56
sS'flops_cycle'
p142
F1.113608
sa(dp143
S'cycles'
p144
F3104530460.0
sS'total_sum'
p145
F813834843.609413
sS'matrix_size'
p146
I1176
sS'num_runs'
p147
I1
sS'block_size'
p148
I56
sS'flops_cycle'
p149
F1.047746
sa(dp150
S'cycles'
p151
F3379479255.0
sS'total_sum'
p152
F935431972.413329
sS'matrix_size'
p153
I1232
sS'num_runs'
p154
I1
sS'block_size'
p155
I56
sS'flops_cycle'
p156
F1.106655
sa(dp157
S'cycles'
p158
F3739475584.0
sS'total_sum'
p159
F4.763926728036327e+161
sS'matrix_size'
p160
I1288
sS'num_runs'
p161
I1
sS'block_size'
p162
I56
sS'flops_cycle'
p163
F1.142791
sa(dp164
S'cycles'
p165
F4445201233.0
sS'total_sum'
p166
F1215732942.60417
sS'matrix_size'
p167
I1344
sS'num_runs'
p168
I1
sS'block_size'
p169
I56
sS'flops_cycle'
p170
F1.092286
sa(dp171
S'cycles'
p172
F4889115247.0
sS'total_sum'
p173
F1.2494780128343346e+74
sS'matrix_size'
p174
I1400
sS'num_runs'
p175
I1
sS'block_size'
p176
I56
sS'flops_cycle'
p177
F1.122493
sa(dp178
S'cycles'
p179
F5390407192.0
sS'total_sum'
p180
F8.374010271992239e+214
sS'matrix_size'
p181
I1456
sS'num_runs'
p182
I1
sS'block_size'
p183
I56
sS'flops_cycle'
p184
F1.14523
sa(dp185
S'cycles'
p186
F6960195599.0
sS'total_sum'
p187
F2.8682181188378802e+106
sS'matrix_size'
p188
I1512
sS'num_runs'
p189
I1
sS'block_size'
p190
I56
sS'flops_cycle'
p191
F0.993262
sa(dp192
S'cycles'
p193
F7877666355.0
sS'total_sum'
p194
F5.4621401873188055e+212
sS'matrix_size'
p195
I1568
sS'num_runs'
p196
I1
sS'block_size'
p197
I56
sS'flops_cycle'
p198
F0.978747
sa(dp199
S'cycles'
p200
F8104173972.0
sS'total_sum'
p201
F2142970317.157961
sS'matrix_size'
p202
I1624
sS'num_runs'
p203
I1
sS'block_size'
p204
I56
sS'flops_cycle'
p205
F1.057011
sa(dp206
S'cycles'
p207
F8586221207.0
sS'total_sum'
p208
F3.780840574272043e+302
sS'matrix_size'
p209
I1680
sS'num_runs'
p210
I1
sS'block_size'
p211
I56
sS'flops_cycle'
p212
F1.104475
sa(dp213
S'cycles'
p214
F10145021952.0
sS'total_sum'
p215
F2616225449.407487
sS'matrix_size'
p216
I1736
sS'num_runs'
p217
I1
sS'block_size'
p218
I56
sS'flops_cycle'
p219
F1.031398
sa(dp220
S'cycles'
p221
F17868982427.0
sS'total_sum'
p222
F9.95309527094343e+277
sS'matrix_size'
p223
I1792
sS'num_runs'
p224
I1
sS'block_size'
p225
I56
sS'flops_cycle'
p226
F0.644086
sa(dp227
S'cycles'
p228
F15832519832.0
sS'total_sum'
p229
F3155226812.839045
sS'matrix_size'
p230
I1848
sS'num_runs'
p231
I1
sS'block_size'
p232
I56
sS'flops_cycle'
p233
F0.797234
sa(dp234
S'cycles'
p235
F13049151811.0
sS'total_sum'
p236
F2.661180232392504e+201
sS'matrix_size'
p237
I1904
sS'num_runs'
p238
I1
sS'block_size'
p239
I56
sS'flops_cycle'
p240
F1.05791
sa(dp241
S'cycles'
p242
F14897571202.0
sS'total_sum'
p243
F3.7631125787554047e+31
sS'matrix_size'
p244
I1960
sS'num_runs'
p245
I1
sS'block_size'
p246
I56
sS'flops_cycle'
p247
F1.010841
sasS'code0.c'
p248
(lp249
(dp250
S'cycles'
p251
F25.972321
sS'total_sum'
p252
F43743129.467203
sS'matrix_size'
p253
I2
sS'num_runs'
p254
I4194304
sS'block_size'
p255
I2
sS'flops_cycle'
p256
F0.61604
sa(dp257
S'cycles'
p258
F146.364818
sS'total_sum'
p259
F51535344.855424
sS'matrix_size'
p260
I4
sS'num_runs'
p261
I1048576
sS'block_size'
p262
I2
sS'flops_cycle'
p263
F0.874527
sa(dp264
S'cycles'
p265
F489.414455
sS'total_sum'
p266
F4.3390216126161013e+266
sS'matrix_size'
p267
I6
sS'num_runs'
p268
I262144
sS'block_size'
p269
I2
sS'flops_cycle'
p270
F0.882687
sa(dp271
S'cycles'
p272
F1167.897751
sS'total_sum'
p273
F46389719.068147
sS'matrix_size'
p274
I8
sS'num_runs'
p275
I131072
sS'block_size'
p276
I2
sS'flops_cycle'
p277
F0.876789
sa(dp278
S'cycles'
p279
F2300.376022
sS'total_sum'
p280
F5.997108030552471e+43
sS'matrix_size'
p281
I10
sS'num_runs'
p282
I65536
sS'block_size'
p283
I2
sS'flops_cycle'
p284
F0.869423
sa(dp285
S'cycles'
p286
F4067.12619
sS'total_sum'
p287
F1.3789278442645386e+79
sS'matrix_size'
p288
I12
sS'num_runs'
p289
I32768
sS'block_size'
p290
I2
sS'flops_cycle'
p291
F0.84974
sa(dp292
S'cycles'
p293
F6549.807678
sS'total_sum'
p294
F32052536.79974
sS'matrix_size'
p295
I14
sS'num_runs'
p296
I16384
sS'block_size'
p297
I2
sS'flops_cycle'
p298
F0.837887
sa(dp299
S'cycles'
p300
F14097.347168
sS'total_sum'
p301
F2.3781955016885774e+272
sS'matrix_size'
p302
I16
sS'num_runs'
p303
I8192
sS'block_size'
p304
I2
sS'flops_cycle'
p305
F0.581102
sa(dp306
S'cycles'
p307
F23785.005737
sS'total_sum'
p308
F34113147.693437
sS'matrix_size'
p309
I18
sS'num_runs'
p310
I8192
sS'block_size'
p311
I2
sS'flops_cycle'
p312
F0.490393
sa(dp313
S'cycles'
p314
F32422.460449
sS'total_sum'
p315
F5.603284535988221e+282
sS'matrix_size'
p316
I20
sS'num_runs'
p317
I4096
sS'block_size'
p318
I2
sS'flops_cycle'
p319
F0.493485
sa(dp320
S'cycles'
p321
F42986.379639
sS'total_sum'
p322
F32906089.899439
sS'matrix_size'
p323
I22
sS'num_runs'
p324
I4096
sS'block_size'
p325
I2
sS'flops_cycle'
p326
F0.495413
sa(dp327
S'cycles'
p328
F55608.76709
sS'total_sum'
p329
F2.0261805980187384e+176
sS'matrix_size'
p330
I24
sS'num_runs'
p331
I2048
sS'block_size'
p332
I2
sS'flops_cycle'
p333
F0.497188
sa(dp334
S'cycles'
p335
F70536.669434
sS'total_sum'
p336
F1.7537163326390418e+304
sS'matrix_size'
p337
I26
sS'num_runs'
p338
I2048
sS'block_size'
p339
I2
sS'flops_cycle'
p340
F0.498351
sa(dp341
S'cycles'
p342
F87924.549805
sS'total_sum'
p343
F35860026.345991
sS'matrix_size'
p344
I28
sS'num_runs'
p345
I2048
sS'block_size'
p346
I2
sS'flops_cycle'
p347
F0.499337
sa(dp348
S'cycles'
p349
F108788.349609
sS'total_sum'
p350
F21711964.636157
sS'matrix_size'
p351
I30
sS'num_runs'
p352
I1024
sS'block_size'
p353
I2
sS'flops_cycle'
p354
F0.496377
sa(dp355
S'cycles'
p356
F134116.359375
sS'total_sum'
p357
F2.6773839530360453e+116
sS'matrix_size'
p358
I32
sS'num_runs'
p359
I1024
sS'block_size'
p360
I2
sS'flops_cycle'
p361
F0.48865
sa(dp362
S'cycles'
p363
F170327.25
sS'total_sum'
p364
F2.9326260988066295e+105
sS'matrix_size'
p365
I34
sS'num_runs'
p366
I1024
sS'block_size'
p367
I2
sS'flops_cycle'
p368
F0.461512
sa(dp369
S'cycles'
p370
F185755.532227
sS'total_sum'
p371
F7.391885358128851e+189
sS'matrix_size'
p372
I36
sS'num_runs'
p373
I1024
sS'block_size'
p374
I2
sS'flops_cycle'
p375
F0.502338
sa(dp376
S'cycles'
p377
F250360.785156
sS'total_sum'
p378
F6.689429722057364e+72
sS'matrix_size'
p379
I38
sS'num_runs'
p380
I512
sS'block_size'
p381
I2
sS'flops_cycle'
p382
F0.438343
sa(dp383
S'cycles'
p384
F291535.523438
sS'total_sum'
p385
F7.849231121340495e+298
sS'matrix_size'
p386
I40
sS'num_runs'
p387
I512
sS'block_size'
p388
I2
sS'flops_cycle'
p389
F0.439055
sa(dp390
S'cycles'
p391
F334587.511719
sS'total_sum'
p392
F29265051.081773
sS'matrix_size'
p393
I42
sS'num_runs'
p394
I512
sS'block_size'
p395
I2
sS'flops_cycle'
p396
F0.442862
sa(dp397
S'cycles'
p398
F383118.212891
sS'total_sum'
p399
F33477730.986056
sS'matrix_size'
p400
I44
sS'num_runs'
p401
I512
sS'block_size'
p402
I2
sS'flops_cycle'
p403
F0.444688
sa(dp404
S'cycles'
p405
F436268.019531
sS'total_sum'
p406
F7.426792181257459e+262
sS'matrix_size'
p407
I46
sS'num_runs'
p408
I256
sS'block_size'
p409
I2
sS'flops_cycle'
p410
F0.446221
sa(dp411
S'cycles'
p412
F501289.566406
sS'total_sum'
p413
F5.230758486731042e+134
sS'matrix_size'
p414
I48
sS'num_runs'
p415
I256
sS'block_size'
p416
I2
sS'flops_cycle'
p417
F0.44123
sa(dp418
S'cycles'
p419
F555950.578125
sS'total_sum'
p420
F23673077.860158
sS'matrix_size'
p421
I50
sS'num_runs'
p422
I256
sS'block_size'
p423
I2
sS'flops_cycle'
p424
F0.44968
sa(dp425
S'cycles'
p426
F620938.339844
sS'total_sum'
p427
F2.480026821332295e+203
sS'matrix_size'
p428
I52
sS'num_runs'
p429
I256
sS'block_size'
p430
I2
sS'flops_cycle'
p431
F0.452889
sa(dp432
S'cycles'
p433
F693096.464844
sS'total_sum'
p434
F30256673.81259
sS'matrix_size'
p435
I54
sS'num_runs'
p436
I256
sS'block_size'
p437
I2
sS'flops_cycle'
p438
F0.454378
sa(dp439
S'cycles'
p440
F769836.539062
sS'total_sum'
p441
F33776141.394489
sS'matrix_size'
p442
I56
sS'num_runs'
p443
I256
sS'block_size'
p444
I2
sS'flops_cycle'
p445
F0.456242
sa(dp446
S'cycles'
p447
F853594.890625
sS'total_sum'
p448
F18734022.977448
sS'matrix_size'
p449
I58
sS'num_runs'
p450
I128
sS'block_size'
p451
I2
sS'flops_cycle'
p452
F0.457154
sa(dp453
S'cycles'
p454
F946068.734375
sS'total_sum'
p455
F20630131.25885
sS'matrix_size'
p456
I60
sS'num_runs'
p457
I128
sS'block_size'
p458
I2
sS'flops_cycle'
p459
F0.456626
sa(dp460
S'cycles'
p461
F1062496.320312
sS'total_sum'
p462
F22907480.986914
sS'matrix_size'
p463
I62
sS'num_runs'
p464
I128
sS'block_size'
p465
I2
sS'flops_cycle'
p466
F0.448619
sa(dp467
S'cycles'
p468
F1183365.21875
sS'total_sum'
p469
F5.545985166946615e+82
sS'matrix_size'
p470
I64
sS'num_runs'
p471
I128
sS'block_size'
p472
I2
sS'flops_cycle'
p473
F0.443048
sa(dp474
S'cycles'
p475
F1369635.203125
sS'total_sum'
p476
F30053363.437691
sS'matrix_size'
p477
I68
sS'num_runs'
p478
I128
sS'block_size'
p479
I2
sS'flops_cycle'
p480
F0.459147
sa(dp481
S'cycles'
p482
F1606899.5
sS'total_sum'
p483
F17609324.742216
sS'matrix_size'
p484
I72
sS'num_runs'
p485
I64
sS'block_size'
p486
I2
sS'flops_cycle'
p487
F0.464557
sa(dp488
S'cycles'
p489
F1878465.796875
sS'total_sum'
p490
F20755602.347493
sS'matrix_size'
p491
I76
sS'num_runs'
p492
I64
sS'block_size'
p493
I2
sS'flops_cycle'
p494
F0.467377
sa(dp495
S'cycles'
p496
F2230847.625
sS'total_sum'
p497
F24118036.524305
sS'matrix_size'
p498
I80
sS'num_runs'
p499
I64
sS'block_size'
p500
I2
sS'flops_cycle'
p501
F0.459018
sa(dp502
S'cycles'
p503
F2521928.59375
sS'total_sum'
p504
F28625478.31372
sS'matrix_size'
p505
I84
sS'num_runs'
p506
I64
sS'block_size'
p507
I2
sS'flops_cycle'
p508
F0.47004
sa(dp509
S'cycles'
p510
F2897991.34375
sS'total_sum'
p511
F1.702482455653129e+139
sS'matrix_size'
p512
I88
sS'num_runs'
p513
I64
sS'block_size'
p514
I2
sS'flops_cycle'
p515
F0.470306
sa(dp516
S'cycles'
p517
F3327444.875
sS'total_sum'
p518
F2.014771160353976e+297
sS'matrix_size'
p519
I92
sS'num_runs'
p520
I32
sS'block_size'
p521
I2
sS'flops_cycle'
p522
F0.46804
sa(dp523
S'cycles'
p524
F3825452.625
sS'total_sum'
p525
F21295914.961545
sS'matrix_size'
p526
I96
sS'num_runs'
p527
I32
sS'block_size'
p528
I2
sS'flops_cycle'
p529
F0.462552
sa(dp530
S'cycles'
p531
F4256330.6875
sS'total_sum'
p532
F1.4626625024046262e+168
sS'matrix_size'
p533
I100
sS'num_runs'
p534
I32
sS'block_size'
p535
I2
sS'flops_cycle'
p536
F0.469888
sa(dp537
S'cycles'
p538
F4735618.375
sS'total_sum'
p539
F5.664214505845473e+45
sS'matrix_size'
p540
I104
sS'num_runs'
p541
I32
sS'block_size'
p542
I2
sS'flops_cycle'
p543
F0.475065
sa(dp544
S'cycles'
p545
F5278623.5625
sS'total_sum'
p546
F30237784.84522
sS'matrix_size'
p547
I108
sS'num_runs'
p548
I32
sS'block_size'
p549
I2
sS'flops_cycle'
p550
F0.477288
sa(dp551
S'cycles'
p552
F5995046.0625
sS'total_sum'
p553
F1.4620310283896166e+81
sS'matrix_size'
p554
I112
sS'num_runs'
p555
I32
sS'block_size'
p556
I2
sS'flops_cycle'
p557
F0.468696
sa(dp558
S'cycles'
p559
F6511176.4375
sS'total_sum'
p560
F18383337.916045
sS'matrix_size'
p561
I116
sS'num_runs'
p562
I16
sS'block_size'
p563
I2
sS'flops_cycle'
p564
F0.479451
sa(dp565
S'cycles'
p566
F7226630.5625
sS'total_sum'
p567
F8.455770711329e+17
sS'matrix_size'
p568
I120
sS'num_runs'
p569
I16
sS'block_size'
p570
I2
sS'flops_cycle'
p571
F0.478231
sa(dp572
S'cycles'
p573
F8012754.5
sS'total_sum'
p574
F2.0453188874581348e+16
sS'matrix_size'
p575
I124
sS'num_runs'
p576
I16
sS'block_size'
p577
I2
sS'flops_cycle'
p578
F0.475897
sa(dp579
S'cycles'
p580
F1182225.960938
sS'total_sum'
p581
F25251665.024394
sS'matrix_size'
p582
I64
sS'num_runs'
p583
I128
sS'block_size'
p584
I2
sS'flops_cycle'
p585
F0.443475
sa(dp586
S'cycles'
p587
F2229642.046875
sS'total_sum'
p588
F8.666967291976632e+163
sS'matrix_size'
p589
I80
sS'num_runs'
p590
I64
sS'block_size'
p591
I2
sS'flops_cycle'
p592
F0.459267
sa(dp593
S'cycles'
p594
F3820012.9375
sS'total_sum'
p595
F21277700.602194
sS'matrix_size'
p596
I96
sS'num_runs'
p597
I32
sS'block_size'
p598
I2
sS'flops_cycle'
p599
F0.463211
sa(dp600
S'cycles'
p601
F6019158.28125
sS'total_sum'
p602
F6.024194663025239e+237
sS'matrix_size'
p603
I112
sS'num_runs'
p604
I32
sS'block_size'
p605
I2
sS'flops_cycle'
p606
F0.466819
sa(dp607
S'cycles'
p608
F12742531.0
sS'total_sum'
p609
F12102807.346376
sS'matrix_size'
p610
I128
sS'num_runs'
p611
I8
sS'block_size'
p612
I2
sS'flops_cycle'
p613
F0.329158
sa(dp614
S'cycles'
p615
F13662878.25
sS'total_sum'
p616
F17266180.663473
sS'matrix_size'
p617
I144
sS'num_runs'
p618
I8
sS'block_size'
p619
I2
sS'flops_cycle'
p620
F0.437094
sa(dp621
S'cycles'
p622
F21398238.75
sS'total_sum'
p623
F1.328968355158167e+234
sS'matrix_size'
p624
I160
sS'num_runs'
p625
I8
sS'block_size'
p626
I2
sS'flops_cycle'
p627
F0.382835
sa(dp628
S'cycles'
p629
F25628720.25
sS'total_sum'
p630
F15009350.567372
sS'matrix_size'
p631
I176
sS'num_runs'
p632
I4
sS'block_size'
p633
I2
sS'flops_cycle'
p634
F0.425443
sa(dp635
S'cycles'
p636
F41923508.0
sS'total_sum'
p637
F4.331607708850236e+219
sS'matrix_size'
p638
I192
sS'num_runs'
p639
I4
sS'block_size'
p640
I2
sS'flops_cycle'
p641
F0.337657
sa(dp642
S'cycles'
p643
F44178332.0
sS'total_sum'
p644
F2.4522894920139384e+294
sS'matrix_size'
p645
I208
sS'num_runs'
p646
I4
sS'block_size'
p647
I2
sS'flops_cycle'
p648
F0.40739
sa(dp649
S'cycles'
p650
F63861865.0
sS'total_sum'
p651
F14092048.680179
sS'matrix_size'
p652
I224
sS'num_runs'
p653
I2
sS'block_size'
p654
I2
sS'flops_cycle'
p655
F0.351992
sa(dp656
S'cycles'
p657
F70345769.5
sS'total_sum'
p658
F17325408.591218
sS'matrix_size'
p659
I240
sS'num_runs'
p660
I2
sS'block_size'
p661
I2
sS'flops_cycle'
p662
F0.39303
sa(dp663
S'cycles'
p664
F136705835.0
sS'total_sum'
p665
F2.5360590323577165e+269
sS'matrix_size'
p666
I256
sS'num_runs'
p667
I1
sS'block_size'
p668
I2
sS'flops_cycle'
p669
F0.24545
sa(dp670
S'cycles'
p671
F109340111.0
sS'total_sum'
p672
F4.278532851255869e+126
sS'matrix_size'
p673
I272
sS'num_runs'
p674
I1
sS'block_size'
p675
I2
sS'flops_cycle'
p676
F0.368093
sa(dp677
S'cycles'
p678
F137802262.0
sS'total_sum'
p679
F11961486.812809
sS'matrix_size'
p680
I288
sS'num_runs'
p681
I1
sS'block_size'
p682
I2
sS'flops_cycle'
p683
F0.346698
sa(dp684
S'cycles'
p685
F158496727.0
sS'total_sum'
p686
F14562812.499645
sS'matrix_size'
p687
I304
sS'num_runs'
p688
I1
sS'block_size'
p689
I2
sS'flops_cycle'
p690
F0.354512
sa(dp691
S'cycles'
p692
F210519953.0
sS'total_sum'
p693
F16428062.011826
sS'matrix_size'
p694
I320
sS'num_runs'
p695
I1
sS'block_size'
p696
I2
sS'flops_cycle'
p697
F0.311305
sa(dp698
S'cycles'
p699
F213796921.0
sS'total_sum'
p700
F3.3398436473468595e+52
sS'matrix_size'
p701
I336
sS'num_runs'
p702
I1
sS'block_size'
p703
I2
sS'flops_cycle'
p704
F0.354851
sa(dp705
S'cycles'
p706
F252501116.0
sS'total_sum'
p707
F21999914.941137
sS'matrix_size'
p708
I352
sS'num_runs'
p709
I1
sS'block_size'
p710
I2
sS'flops_cycle'
p711
F0.345458
sa(dp712
S'cycles'
p713
F281146599.0
sS'total_sum'
p714
F25108402.775891
sS'matrix_size'
p715
I368
sS'num_runs'
p716
I1
sS'block_size'
p717
I2
sS'flops_cycle'
p718
F0.35452
sa(dp719
S'cycles'
p720
F414121899.0
sS'total_sum'
p721
F2.1708568690410806e+230
sS'matrix_size'
p722
I384
sS'num_runs'
p723
I1
sS'block_size'
p724
I2
sS'flops_cycle'
p725
F0.273461
sa(dp726
S'cycles'
p727
F361888525.0
sS'total_sum'
p728
F3.449401039698469e+242
sS'matrix_size'
p729
I400
sS'num_runs'
p730
I1
sS'block_size'
p731
I2
sS'flops_cycle'
p732
F0.3537
sa(dp733
S'cycles'
p734
F427861742.0
sS'total_sum'
p735
F6.51637744431568e+147
sS'matrix_size'
p736
I416
sS'num_runs'
p737
I1
sS'block_size'
p738
I2
sS'flops_cycle'
p739
F0.336517
sa(dp740
S'cycles'
p741
F455480257.0
sS'total_sum'
p742
F3.2795145106333634e+170
sS'matrix_size'
p743
I432
sS'num_runs'
p744
I1
sS'block_size'
p745
I2
sS'flops_cycle'
p746
F0.354007
sa(dp747
S'cycles'
p748
F610504254.0
sS'total_sum'
p749
F4.604662801323778e+127
sS'matrix_size'
p750
I448
sS'num_runs'
p751
I1
sS'block_size'
p752
I2
sS'flops_cycle'
p753
F0.294561
sa(dp754
S'cycles'
p755
F567537749.0
sS'total_sum'
p756
F6.9562657582407216e+190
sS'matrix_size'
p757
I464
sS'num_runs'
p758
I1
sS'block_size'
p759
I2
sS'flops_cycle'
p760
F0.352038
sa(dp761
S'cycles'
p762
F678266715.0
sS'total_sum'
p763
F55258617.991261
sS'matrix_size'
p764
I480
sS'num_runs'
p765
I1
sS'block_size'
p766
I2
sS'flops_cycle'
p767
F0.326102
sa(dp768
S'cycles'
p769
F700720174.0
sS'total_sum'
p770
F3.9860910148776327e+43
sS'matrix_size'
p771
I496
sS'num_runs'
p772
I1
sS'block_size'
p773
I2
sS'flops_cycle'
p774
F0.348281
sa(dp775
S'cycles'
p776
F1480855612.0
sS'total_sum'
p777
F3.5417075082401257e+270
sS'matrix_size'
p778
I512
sS'num_runs'
p779
I1
sS'block_size'
p780
I2
sS'flops_cycle'
p781
F0.181271
sa(dp782
S'cycles'
p783
F7141396095.0
sS'total_sum'
p784
F131479531.248976
sS'matrix_size'
p785
I640
sS'num_runs'
p786
I1
sS'block_size'
p787
I2
sS'flops_cycle'
p788
F0.073415
sa(dp789
S'cycles'
p790
F14853298805.0
sS'total_sum'
p791
F226917068.50696
sS'matrix_size'
p792
I768
sS'num_runs'
p793
I1
sS'block_size'
p794
I2
sS'flops_cycle'
p795
F0.060995
sa(dp796
S'cycles'
p797
F25248048246.0
sS'total_sum'
p798
F359950442.730633
sS'matrix_size'
p799
I896
sS'num_runs'
p800
I1
sS'block_size'
p801
I2
sS'flops_cycle'
p802
F0.05698
sa(dp803
S'cycles'
p804
F39623834356.0
sS'total_sum'
p805
F1.1401886467071149e+291
sS'matrix_size'
p806
I1024
sS'num_runs'
p807
I1
sS'block_size'
p808
I2
sS'flops_cycle'
p809
F0.054197
sa(dp810
S'cycles'
p811
F54217304667.0
sS'total_sum'
p812
F2.7447057289934777e+31
sS'matrix_size'
p813
I1152
sS'num_runs'
p814
I1
sS'block_size'
p815
I2
sS'flops_cycle'
p816
F0.056396
sa(dp817
S'cycles'
p818
F82632976790.0
sS'total_sum'
p819
F3.0336317810492827e+177
sS'matrix_size'
p820
I1280
sS'num_runs'
p821
I1
sS'block_size'
p822
I2
sS'flops_cycle'
p823
F0.050758
sa(dp824
S'cycles'
p825
F105926328913.0
sS'total_sum'
p826
F1396869889.892264
sS'matrix_size'
p827
I1408
sS'num_runs'
p828
I1
sS'block_size'
p829
I2
sS'flops_cycle'
p830
F0.052703
sa(dp831
S'cycles'
p832
F147282474149.0
sS'total_sum'
p833
F1813086523.586596
sS'matrix_size'
p834
I1536
sS'num_runs'
p835
I1
sS'block_size'
p836
I2
sS'flops_cycle'
p837
F0.04921
sas.