(dp0
S'code3.c'
p1
(lp2
(dp3
S'num_runs'
p4
I262144
sS'total_sum'
p5
F99964772.742273
sS'block_size'
p6
I8
sS'flops_cycle'
p7
F1.372439
sS'cycles'
p8
F746.116703
sa(dp9
S'num_runs'
p10
I16384
sS'total_sum'
p11
F51227831.910186
sS'block_size'
p12
I16
sS'flops_cycle'
p13
F1.170124
sS'cycles'
p14
F7000.964539
sa(dp15
S'num_runs'
p16
I8192
sS'total_sum'
p17
F8.251368896750301e+154
sS'block_size'
p18
I24
sS'flops_cycle'
p19
F1.298042
sS'cycles'
p20
F21299.776367
sa(dp21
S'num_runs'
p22
I2048
sS'total_sum'
p23
F51219755.233854
sS'block_size'
p24
I32
sS'flops_cycle'
p25
F1.223054
sS'cycles'
p26
F53583.905273
sa(dp27
S'num_runs'
p28
I2048
sS'total_sum'
p29
F100022871.696139
sS'block_size'
p30
I40
sS'flops_cycle'
p31
F1.309561
sS'cycles'
p32
F97742.662109
sa(dp33
S'num_runs'
p34
I1024
sS'total_sum'
p35
F9.303939845548346e+201
sS'block_size'
p36
I48
sS'flops_cycle'
p37
F1.250796
sS'cycles'
p38
F176834.550781
sa(dp39
S'num_runs'
p40
I512
sS'total_sum'
p41
F69040163.342219
sS'block_size'
p42
I56
sS'flops_cycle'
p43
F1.304052
sS'cycles'
p44
F269338.865234
sa(dp45
S'num_runs'
p46
I256
sS'total_sum'
p47
F50163296.326651
sS'block_size'
p48
I64
sS'flops_cycle'
p49
F1.186326
sS'cycles'
p50
F441942.527344
sa(dp51
S'num_runs'
p52
I256
sS'total_sum'
p53
F6.877970332727446e+245
sS'block_size'
p54
I72
sS'flops_cycle'
p55
F1.190037
sS'cycles'
p56
F627288.066406
sa(dp57
S'num_runs'
p58
I128
sS'total_sum'
p59
F7.080691547503879e+250
sS'block_size'
p60
I80
sS'flops_cycle'
p61
F1.167218
sS'cycles'
p62
F877299.460938
sa(dp63
S'num_runs'
p64
I128
sS'total_sum'
p65
F1.2563888897426805e+137
sS'block_size'
p66
I88
sS'flops_cycle'
p67
F1.18883
sS'cycles'
p68
F1146458.179688
sa(dp69
S'num_runs'
p70
I128
sS'total_sum'
p71
F5.446496162135659e+231
sS'block_size'
p72
I96
sS'flops_cycle'
p73
F1.164341
sS'cycles'
p74
F1519720.039062
sa(dp75
S'num_runs'
p76
I64
sS'total_sum'
p77
F54267564.338011
sS'block_size'
p78
I104
sS'flops_cycle'
p79
F1.185112
sS'cycles'
p80
F1898325.1875
sa(dp81
S'num_runs'
p82
I64
sS'total_sum'
p83
F4.569894429878137e+229
sS'block_size'
p84
I112
sS'flops_cycle'
p85
F1.171913
sS'cycles'
p86
F2397666.1875
sa(dp87
S'num_runs'
p88
I64
sS'total_sum'
p89
F82507130.308926
sS'block_size'
p90
I120
sS'flops_cycle'
p91
F1.183233
sS'cycles'
p92
F2920809.828125
sa(dp93
S'num_runs'
p94
I32
sS'total_sum'
p95
F49911845.041527
sS'block_size'
p96
I128
sS'flops_cycle'
p97
F0.873967
sS'cycles'
p98
F4799153.59375
sa(dp99
S'num_runs'
p100
I32
sS'total_sum'
p101
F59995290.269169
sS'block_size'
p102
I136
sS'flops_cycle'
p103
F1.170184
sS'cycles'
p104
F4299248.0625
sa(dp105
S'num_runs'
p106
I32
sS'total_sum'
p107
F9.730314328697439e+151
sS'block_size'
p108
I144
sS'flops_cycle'
p109
F1.133518
sS'cycles'
p110
F5268525.25
sa(dp111
S'num_runs'
p112
I16
sS'total_sum'
p113
F41280374.309442
sS'block_size'
p114
I152
sS'flops_cycle'
p115
F1.018658
sS'cycles'
p116
F6894966.875
sa(dp117
S'num_runs'
p118
I16
sS'total_sum'
p119
F4.866633064542141e+123
sS'block_size'
p120
I160
sS'flops_cycle'
p121
F0.907003
sS'cycles'
p122
F9031945.5625
sa(dp123
S'num_runs'
p124
I16
sS'total_sum'
p125
F5.154398078392015e+117
sS'block_size'
p126
I168
sS'flops_cycle'
p127
F1.058912
sS'cycles'
p128
F8955670.375
sa(dp129
S'num_runs'
p130
I16
sS'total_sum'
p131
F63568445.9335
sS'block_size'
p132
I176
sS'flops_cycle'
p133
F0.941018
sS'cycles'
p134
F11586970.1875
sa(dp135
S'num_runs'
p136
I8
sS'total_sum'
p137
F1.2696977824607129e+92
sS'block_size'
p138
I184
sS'flops_cycle'
p139
F0.905647
sS'cycles'
p140
F13757017.375
sa(dp141
S'num_runs'
p142
I8
sS'total_sum'
p143
F2.4070512934269243e+184
sS'block_size'
p144
I192
sS'flops_cycle'
p145
F0.817189
sS'cycles'
p146
F17322531.25
sa(dp147
S'num_runs'
p148
I8
sS'total_sum'
p149
F1.466113060857951e+172
sS'block_size'
p150
I200
sS'flops_cycle'
p151
F0.831454
sS'cycles'
p152
F19243386.75
sa(dp153
S'num_runs'
p154
I8
sS'total_sum'
p155
F7.278415438131018e+248
sS'block_size'
p156
I208
sS'flops_cycle'
p157
F0.794626
sS'cycles'
p158
F22649428.0
sa(dp159
S'num_runs'
p160
I4
sS'total_sum'
p161
F27767738.07154
sS'block_size'
p162
I216
sS'flops_cycle'
p163
F0.78294
sS'cycles'
p164
F25743212.0
sa(dp165
S'num_runs'
p166
I4
sS'total_sum'
p167
F8.315443419242277e+286
sS'block_size'
p168
I224
sS'flops_cycle'
p169
F0.755633
sS'cycles'
p170
F29748379.25
sa(dp171
S'num_runs'
p172
I4
sS'total_sum'
p173
F34385230.688497
sS'block_size'
p174
I232
sS'flops_cycle'
p175
F0.770478
sS'cycles'
p176
F32414077.0
sa(dp177
S'num_runs'
p178
I4
sS'total_sum'
p179
F2.120406332935512e+116
sS'block_size'
p180
I240
sS'flops_cycle'
p181
F0.758406
sS'cycles'
p182
F36455387.5
sa(dp183
S'num_runs'
p184
I4
sS'total_sum'
p185
F42049277.124934
sS'block_size'
p186
I248
sS'flops_cycle'
p187
F0.756162
sS'cycles'
p188
F40343174.75
sa(dp189
S'num_runs'
p190
I2
sS'total_sum'
p191
F21054265.306805
sS'block_size'
p192
I256
sS'flops_cycle'
p193
F0.640245
sS'cycles'
p194
F52408724.5
sa(dp195
S'num_runs'
p196
I4
sS'total_sum'
p197
F2.4240543395158792e+303
sS'block_size'
p198
I264
sS'flops_cycle'
p199
F0.798633
sS'cycles'
p200
F46078110.25
sa(dp201
S'num_runs'
p202
I2
sS'total_sum'
p203
F25272817.723268
sS'block_size'
p204
I272
sS'flops_cycle'
p205
F0.787144
sS'cycles'
p206
F51130789.0
sa(dp207
S'num_runs'
p208
I2
sS'total_sum'
p209
F1.845773368541175e+144
sS'block_size'
p210
I280
sS'flops_cycle'
p211
F0.764215
sS'cycles'
p212
F57449821.5
sa(dp213
S'num_runs'
p214
I2
sS'total_sum'
p215
F1.003373475767522e+232
sS'block_size'
p216
I288
sS'flops_cycle'
p217
F0.749834
sS'cycles'
p218
F63715084.5
sa(dp219
S'num_runs'
p220
I2
sS'total_sum'
p221
F32380431.555057
sS'block_size'
p222
I296
sS'flops_cycle'
p223
F0.757032
sS'cycles'
p224
F68515819.0
sa(dp225
S'num_runs'
p226
I2
sS'total_sum'
p227
F35061744.360837
sS'block_size'
p228
I304
sS'flops_cycle'
p229
F0.758847
sS'cycles'
p230
F74045118.0
sa(dp231
S'num_runs'
p232
I2
sS'total_sum'
p233
F37915618.928582
sS'block_size'
p234
I312
sS'flops_cycle'
p235
F0.758893
sS'cycles'
p236
F80041100.0
sa(dp237
S'num_runs'
p238
I2
sS'total_sum'
p239
F40895977.419541
sS'block_size'
p240
I320
sS'flops_cycle'
p241
F0.684258
sS'cycles'
p242
F95776771.0
sa(dp243
S'num_runs'
p244
I2
sS'total_sum'
p245
F44023042.247521
sS'block_size'
p246
I328
sS'flops_cycle'
p247
F0.765785
sS'cycles'
p248
F92160523.5
sa(dp249
S'num_runs'
p250
I2
sS'total_sum'
p251
F2.417968922434779e+227
sS'block_size'
p252
I336
sS'flops_cycle'
p253
F0.771886
sS'cycles'
p254
F98286720.0
sa(dp255
S'num_runs'
p256
I1
sS'total_sum'
p257
F20433049.16551
sS'block_size'
p258
I344
sS'flops_cycle'
p259
F0.77179
sS'cycles'
p260
F105488758.0
sa(dp261
S'num_runs'
p262
I1
sS'total_sum'
p263
F4.296977934603717e+220
sS'block_size'
p264
I352
sS'flops_cycle'
p265
F0.759643
sS'cycles'
p266
F114828119.0
sa(dp267
S'num_runs'
p268
I1
sS'total_sum'
p269
F5.238098778239864e+63
sS'block_size'
p270
I360
sS'flops_cycle'
p271
F0.778821
sS'cycles'
p272
F119811794.0
sa(dp273
S'num_runs'
p274
I1
sS'total_sum'
p275
F24911780.040394
sS'block_size'
p276
I368
sS'flops_cycle'
p277
F0.782736
sS'cycles'
p278
F127337994.0
sa(dp279
S'num_runs'
p280
I1
sS'total_sum'
p281
F26573379.928275
sS'block_size'
p282
I376
sS'flops_cycle'
p283
F0.783708
sS'cycles'
p284
F135656124.0
sa(dp285
S'num_runs'
p286
I1
sS'total_sum'
p287
F4.389069782186689e+286
sS'block_size'
p288
I384
sS'flops_cycle'
p289
F0.657174
sS'cycles'
p290
F172323079.0
sa(dp291
S'num_runs'
p292
I1
sS'total_sum'
p293
F30091023.045991
sS'block_size'
p294
I392
sS'flops_cycle'
p295
F0.780247
sS'cycles'
p296
F154403132.0
sa(dp297
S'num_runs'
p298
I1
sS'total_sum'
p299
F3.0456051442136447e+93
sS'block_size'
p300
I400
sS'flops_cycle'
p301
F0.780598
sS'cycles'
p302
F163976756.0
sa(dp303
S'num_runs'
p304
I1
sS'total_sum'
p305
F34058923.415094
sS'block_size'
p306
I408
sS'flops_cycle'
p307
F0.776278
sS'cycles'
p308
F174981929.0
sa(dp309
S'num_runs'
p310
I1
sS'total_sum'
p311
F36095470.685277
sS'block_size'
p312
I416
sS'flops_cycle'
p313
F0.747586
sS'cycles'
p314
F192596745.0
sa(dp315
S'num_runs'
p316
I1
sS'total_sum'
p317
F1.0183925974888164e+77
sS'block_size'
p318
I424
sS'flops_cycle'
p319
F0.771874
sS'cycles'
p320
F197506471.0
sa(dp321
S'num_runs'
p322
I1
sS'total_sum'
p323
F40496273.04217
sS'block_size'
p324
I432
sS'flops_cycle'
p325
F0.775151
sS'cycles'
p326
F208015249.0
sa(dp327
S'num_runs'
p328
I1
sS'total_sum'
p329
F1.136479431893823e+243
sS'block_size'
p330
I440
sS'flops_cycle'
p331
F0.629565
sS'cycles'
p332
F270612301.0
sa(dp333
S'num_runs'
p334
I1
sS'total_sum'
p335
F44994247.46137
sS'block_size'
p336
I448
sS'flops_cycle'
p337
F0.649902
sS'cycles'
p338
F276704366.0
sa(dp339
S'num_runs'
p340
I1
sS'total_sum'
p341
F47424213.12691
sS'block_size'
p342
I456
sS'flops_cycle'
p343
F0.67175
sS'cycles'
p344
F282304012.0
sa(dp345
S'num_runs'
p346
I1
sS'total_sum'
p347
F49958990.950464
sS'block_size'
p348
I464
sS'flops_cycle'
p349
F0.631768
sS'cycles'
p350
F316247129.0
sa(dp351
S'num_runs'
p352
I1
sS'total_sum'
p353
F52820009.383942
sS'block_size'
p354
I472
sS'flops_cycle'
p355
F0.734018
sS'cycles'
p356
F286516383.0
sa(dp357
S'num_runs'
p358
I1
sS'total_sum'
p359
F161176456.593376
sS'block_size'
p360
I480
sS'flops_cycle'
p361
F0.552342
sS'cycles'
p362
F400447230.0
sa(dp363
S'num_runs'
p364
I1
sS'total_sum'
p365
F58367724.736857
sS'block_size'
p366
I488
sS'flops_cycle'
p367
F0.587203
sS'cycles'
p368
F395823227.0
sa(dp369
S'num_runs'
p370
I1
sS'total_sum'
p371
F61186228.252107
sS'block_size'
p372
I496
sS'flops_cycle'
p373
F0.620976
sS'cycles'
p374
F393006798.0
sa(dp375
S'num_runs'
p376
I1
sS'total_sum'
p377
F3.304568169899098e+57
sS'block_size'
p378
I504
sS'flops_cycle'
p379
F0.508259
sS'cycles'
p380
F503774431.0
sa(dp381
S'num_runs'
p382
I1
sS'total_sum'
p383
F4.1431238272895613e+93
sS'block_size'
p384
I512
sS'flops_cycle'
p385
F0.408803
sS'cycles'
p386
F656637824.0
sasS'code1.c'
p387
(lp388
(dp389
S'num_runs'
p390
I1048576
sS'total_sum'
p391
F54719259.068638
sS'block_size'
p392
I4
sS'flops_cycle'
p393
F1.072948
sS'cycles'
p394
F119.297495
sa(dp395
S'num_runs'
p396
I131072
sS'total_sum'
p397
F6.2921648547885874e+137
sS'block_size'
p398
I8
sS'flops_cycle'
p399
F0.94305
sS'cycles'
p400
F1085.83905
sa(dp401
S'num_runs'
p402
I32768
sS'total_sum'
p403
F1.9879244275186624e+160
sS'block_size'
p404
I12
sS'flops_cycle'
p405
F0.914603
sS'cycles'
p406
F3778.686646
sa(dp407
S'num_runs'
p408
I16384
sS'total_sum'
p409
F2.6904904428758062e+97
sS'block_size'
p410
I16
sS'flops_cycle'
p411
F0.789038
sS'cycles'
p412
F10382.262573
sa(dp413
S'num_runs'
p414
I8192
sS'total_sum'
p415
F2.4080771267527897e+28
sS'block_size'
p416
I20
sS'flops_cycle'
p417
F0.756628
sS'cycles'
p418
F21146.447754
sa(dp419
S'num_runs'
p420
I4096
sS'total_sum'
p421
F3.589691917779527e+52
sS'block_size'
p422
I24
sS'flops_cycle'
p423
F0.743714
sS'cycles'
p424
F37175.558594
sa(dp425
S'num_runs'
p426
I2048
sS'total_sum'
p427
F33911841.1557
sS'block_size'
p428
I28
sS'flops_cycle'
p429
F0.732871
sS'cycles'
p430
F59906.820801
sa(dp431
S'num_runs'
p432
I2048
sS'total_sum'
p433
F50418789.910831
sS'block_size'
p434
I32
sS'flops_cycle'
p435
F0.680221
sS'cycles'
p436
F96345.197754
sa(dp437
S'num_runs'
p438
I1024
sS'total_sum'
p439
F35550577.339939
sS'block_size'
p440
I36
sS'flops_cycle'
p441
F0.686284
sS'cycles'
p442
F135966.976562
sa(dp443
S'num_runs'
p444
I1024
sS'total_sum'
p445
F49654713.998829
sS'block_size'
p446
I40
sS'flops_cycle'
p447
F0.686297
sS'cycles'
p448
F186508.266602
sa(dp449
S'num_runs'
p450
I512
sS'total_sum'
p451
F32982869.336257
sS'block_size'
p452
I44
sS'flops_cycle'
p453
F0.686754
sS'cycles'
p454
F248077.054688
sa(dp455
S'num_runs'
p456
I512
sS'total_sum'
p457
F2.8703718869415735e+146
sS'block_size'
p458
I48
sS'flops_cycle'
p459
F0.680854
sS'cycles'
p460
F324862.65625
sa(dp461
S'num_runs'
p462
I256
sS'total_sum'
p463
F26652643.510448
sS'block_size'
p464
I52
sS'flops_cycle'
p465
F0.685793
sS'cycles'
p466
F410059.863281
sa(dp467
S'num_runs'
p468
I256
sS'total_sum'
p469
F8.350751334218981e+130
sS'block_size'
p470
I56
sS'flops_cycle'
p471
F0.68399
sS'cycles'
p472
F513504.3125
sa(dp473
S'num_runs'
p474
I256
sS'total_sum'
p475
F2.3285907108073212e+291
sS'block_size'
p476
I60
sS'flops_cycle'
p477
F0.680918
sS'cycles'
p478
F634437.589844
sa(dp479
S'num_runs'
p480
I128
sS'total_sum'
p481
F24797259.498573
sS'block_size'
p482
I64
sS'flops_cycle'
p483
F0.66832
sS'cycles'
p484
F784486.210938
sa(dp485
S'num_runs'
p486
I128
sS'total_sum'
p487
F29836132.827114
sS'block_size'
p488
I68
sS'flops_cycle'
p489
F0.674716
sS'cycles'
p490
F932042.078125
sa(dp491
S'num_runs'
p492
I128
sS'total_sum'
p493
F1.3210629200407334e+79
sS'block_size'
p494
I72
sS'flops_cycle'
p495
F0.676237
sS'cycles'
p496
F1103896.671875
sa(dp497
S'num_runs'
p498
I128
sS'total_sum'
p499
F1.3482456661892626e+282
sS'block_size'
p500
I76
sS'flops_cycle'
p501
F0.676529
sS'cycles'
p502
F1297730.515625
sa(dp503
S'num_runs'
p504
I128
sS'total_sum'
p505
F49347530.57914
sS'block_size'
p506
I80
sS'flops_cycle'
p507
F0.673952
sS'cycles'
p508
F1519395.875
sa(dp509
S'num_runs'
p510
I64
sS'total_sum'
p511
F1.5756246814570877e+27
sS'block_size'
p512
I84
sS'flops_cycle'
p513
F0.675856
sS'cycles'
p514
F1753936.359375
sa(dp515
S'num_runs'
p516
I64
sS'total_sum'
p517
F32734120.711475
sS'block_size'
p518
I88
sS'flops_cycle'
p519
F0.675786
sS'cycles'
p520
F2016826.796875
sa(dp521
S'num_runs'
p522
I64
sS'total_sum'
p523
F2.8534906255386313e+244
sS'block_size'
p524
I92
sS'flops_cycle'
p525
F0.674828
sS'cycles'
p526
F2307811.390625
sa(dp527
S'num_runs'
p528
I64
sS'total_sum'
p529
F42491215.779034
sS'block_size'
p530
I96
sS'flops_cycle'
p531
F0.671962
sS'cycles'
p532
F2633289.84375
sa(dp533
S'num_runs'
p534
I64
sS'total_sum'
p535
F3.9095781213489614e+177
sS'block_size'
p536
I100
sS'flops_cycle'
p537
F0.675006
sS'cycles'
p538
F2962937.515625
sa(dp539
S'num_runs'
p540
I32
sS'total_sum'
p541
F1.419282891734724e+248
sS'block_size'
p542
I104
sS'flops_cycle'
p543
F0.67508
sS'cycles'
p544
F3332534.25
sa(dp545
S'num_runs'
p546
I32
sS'total_sum'
p547
F9.646739887180146e+216
sS'block_size'
p548
I108
sS'flops_cycle'
p549
F0.675778
sS'cycles'
p550
F3728184.21875
sa(dp551
S'num_runs'
p552
I32
sS'total_sum'
p553
F33286154.867964
sS'block_size'
p554
I112
sS'flops_cycle'
p555
F0.674254
sS'cycles'
p556
F4167356.46875
sa(dp557
S'num_runs'
p558
I32
sS'total_sum'
p559
F4.1522386851431866e+45
sS'block_size'
p560
I116
sS'flops_cycle'
p561
F0.675333
sS'cycles'
p562
F4622596.625
sa(dp563
S'num_runs'
p564
I32
sS'total_sum'
p565
F6.07983187614973e+22
sS'block_size'
p566
I120
sS'flops_cycle'
p567
F0.667812
sS'cycles'
p568
F5175111.34375
sa(dp569
S'num_runs'
p570
I32
sS'total_sum'
p571
F45401924.4737
sS'block_size'
p572
I124
sS'flops_cycle'
p573
F0.675065
sS'cycles'
p574
F5648710.40625
sa(dp575
S'num_runs'
p576
I16
sS'total_sum'
p577
F2.528244297756367e+143
sS'block_size'
p578
I128
sS'flops_cycle'
p579
F0.582613
sS'cycles'
p580
F7199126.3125
sa(dp581
S'num_runs'
p582
I16
sS'total_sum'
p583
F9.744192242538184e+23
sS'block_size'
p584
I132
sS'flops_cycle'
p585
F0.672958
sS'cycles'
p586
F6835397.3125
sa(dp587
S'num_runs'
p588
I16
sS'total_sum'
p589
F4.935171684310786e+68
sS'block_size'
p590
I136
sS'flops_cycle'
p591
F0.67118
sS'cycles'
p592
F7495623.9375
sa(dp593
S'num_runs'
p594
I16
sS'total_sum'
p595
F32308961.633283
sS'block_size'
p596
I140
sS'flops_cycle'
p597
F0.673165
sS'cycles'
p598
F8152537.0
sa(dp599
S'num_runs'
p600
I16
sS'total_sum'
p601
F35198035.236364
sS'block_size'
p602
I144
sS'flops_cycle'
p603
F0.668618
sS'cycles'
p604
F8931811.625
sa(dp605
S'num_runs'
p606
I16
sS'total_sum'
p607
F38195965.234272
sS'block_size'
p608
I148
sS'flops_cycle'
p609
F0.668847
sS'cycles'
p610
F9693677.8125
sa(dp611
S'num_runs'
p612
I16
sS'total_sum'
p613
F41277518.173545
sS'block_size'
p614
I152
sS'flops_cycle'
p615
F0.663932
sS'cycles'
p616
F10578823.75
sa(dp617
S'num_runs'
p618
I16
sS'total_sum'
p619
F3.4130603418673942e+118
sS'block_size'
p620
I156
sS'flops_cycle'
p621
F0.658242
sS'cycles'
p622
F11535016.0
sa(dp623
S'num_runs'
p624
I8
sS'total_sum'
p625
F1.0245876223330547e+32
sS'block_size'
p626
I160
sS'flops_cycle'
p627
F0.641321
sS'cycles'
p628
F12773631.25
sa(dp629
S'num_runs'
p630
I8
sS'total_sum'
p631
F2.0156675346403226e+236
sS'block_size'
p632
I164
sS'flops_cycle'
p633
F0.658117
sS'cycles'
p634
F13404745.875
sa(dp635
S'num_runs'
p636
I8
sS'total_sum'
p637
F2.7433258621096203e+158
sS'block_size'
p638
I168
sS'flops_cycle'
p639
F0.654528
sS'cycles'
p640
F14488701.75
sa(dp641
S'num_runs'
p642
I8
sS'total_sum'
p643
F2.5095636427503954e+239
sS'block_size'
p644
I172
sS'flops_cycle'
p645
F0.653634
sS'cycles'
p646
F15569724.5
sa(dp647
S'num_runs'
p648
I8
sS'total_sum'
p649
F31161495.805518
sS'block_size'
p650
I176
sS'flops_cycle'
p651
F0.649421
sS'cycles'
p652
F16789657.75
sa(dp653
S'num_runs'
p654
I8
sS'total_sum'
p655
F33337318.343395
sS'block_size'
p656
I180
sS'flops_cycle'
p657
F0.65684
sS'cycles'
p658
F17757738.5
sa(dp659
S'num_runs'
p660
I8
sS'total_sum'
p661
F3.2921178158424573e+87
sS'block_size'
p662
I184
sS'flops_cycle'
p663
F0.652661
sS'cycles'
p664
F19089542.75
sa(dp665
S'num_runs'
p666
I8
sS'total_sum'
p667
F38239933.46776
sS'block_size'
p668
I188
sS'flops_cycle'
p669
F0.641916
sS'cycles'
p670
F20702609.75
sa(dp671
S'num_runs'
p672
I8
sS'total_sum'
p673
F1.1855485645460603e+139
sS'block_size'
p674
I192
sS'flops_cycle'
p675
F0.599853
sS'cycles'
p676
F23598754.625
sa(dp677
S'num_runs'
p678
I8
sS'total_sum'
p679
F43410038.137815
sS'block_size'
p680
I196
sS'flops_cycle'
p681
F0.639769
sS'cycles'
p682
F23538295.75
sa(dp683
S'num_runs'
p684
I4
sS'total_sum'
p685
F22073196.365247
sS'block_size'
p686
I200
sS'flops_cycle'
p687
F0.635863
sS'cycles'
p688
F25162654.5
sa(dp689
S'num_runs'
p690
I4
sS'total_sum'
p691
F1.378595384710475e+137
sS'block_size'
p692
I204
sS'flops_cycle'
p693
F0.634593
sS'cycles'
p694
F26756247.75
sa(dp695
S'num_runs'
p696
I4
sS'total_sum'
p697
F24867534.635149
sS'block_size'
p698
I208
sS'flops_cycle'
p699
F0.622247
sS'cycles'
p700
F28923910.25
sa(dp701
S'num_runs'
p702
I4
sS'total_sum'
p703
F26350299.879522
sS'block_size'
p704
I212
sS'flops_cycle'
p705
F0.627463
sS'cycles'
p706
F30370318.0
sa(dp707
S'num_runs'
p708
I4
sS'total_sum'
p709
F2.174719521793513e+41
sS'block_size'
p710
I216
sS'flops_cycle'
p711
F0.621096
sS'cycles'
p712
F32451312.0
sa(dp713
S'num_runs'
p714
I4
sS'total_sum'
p715
F6.81616661929122e+248
sS'block_size'
p716
I220
sS'flops_cycle'
p717
F0.622431
sS'cycles'
p718
F34214249.75
sa(dp719
S'num_runs'
p720
I4
sS'total_sum'
p721
F2.4641627391228954e+203
sS'block_size'
p722
I224
sS'flops_cycle'
p723
F0.592656
sS'cycles'
p724
F37928986.5
sa(dp725
S'num_runs'
p726
I4
sS'total_sum'
p727
F32621993.103101
sS'block_size'
p728
I228
sS'flops_cycle'
p729
F0.616111
sS'cycles'
p730
F38474723.0
sa(dp731
S'num_runs'
p732
I4
sS'total_sum'
p733
F34493301.842892
sS'block_size'
p734
I232
sS'flops_cycle'
p735
F0.615522
sS'cycles'
p736
F40574214.75
sa(dp737
S'num_runs'
p738
I4
sS'total_sum'
p739
F7.4038750472274105e+177
sS'block_size'
p740
I236
sS'flops_cycle'
p741
F0.615673
sS'cycles'
p742
F42698830.75
sa(dp743
S'num_runs'
p744
I4
sS'total_sum'
p745
F2.066912823813175e+56
sS'block_size'
p746
I240
sS'flops_cycle'
p747
F0.597892
sS'cycles'
p748
F46242489.5
sa(dp749
S'num_runs'
p750
I4
sS'total_sum'
p751
F3.9194837172820556e+42
sS'block_size'
p752
I244
sS'flops_cycle'
p753
F0.605481
sS'cycles'
p754
F47984275.5
sa(dp755
S'num_runs'
p756
I4
sS'total_sum'
p757
F9.032619024977193e+236
sS'block_size'
p758
I248
sS'flops_cycle'
p759
F0.615492
sS'cycles'
p760
F49563564.75
sa(dp761
S'num_runs'
p762
I2
sS'total_sum'
p763
F20119364.197104
sS'block_size'
p764
I252
sS'flops_cycle'
p765
F0.612222
sS'cycles'
p766
F52278475.5
sa(dp767
S'num_runs'
p768
I2
sS'total_sum'
p769
F4.428681967412684e+141
sS'block_size'
p770
I256
sS'flops_cycle'
p771
F0.47
sS'cycles'
p772
F71392420.5
sa(dp773
S'num_runs'
p774
I2
sS'total_sum'
p775
F22065177.197356
sS'block_size'
p776
I260
sS'flops_cycle'
p777
F0.628775
sS'cycles'
p778
F55905554.0
sa(dp779
S'num_runs'
p780
I2
sS'total_sum'
p781
F7.249084810475471e+108
sS'block_size'
p782
I264
sS'flops_cycle'
p783
F0.622855
sS'cycles'
p784
F59081921.0
sa(dp785
S'num_runs'
p786
I2
sS'total_sum'
p787
F7.593225178577979e+286
sS'block_size'
p788
I268
sS'flops_cycle'
p789
F0.625618
sS'cycles'
p790
F61535371.0
sa(dp791
S'num_runs'
p792
I2
sS'total_sum'
p793
F25088805.632907
sS'block_size'
p794
I272
sS'flops_cycle'
p795
F0.596783
sS'cycles'
p796
F67440440.5
sa(dp797
S'num_runs'
p798
I2
sS'total_sum'
p799
F26231682.120829
sS'block_size'
p800
I276
sS'flops_cycle'
p801
F0.614376
sS'cycles'
p802
F68442010.0
sa(dp803
S'num_runs'
p804
I2
sS'total_sum'
p805
F27391247.321942
sS'block_size'
p806
I280
sS'flops_cycle'
p807
F0.617019
sS'cycles'
p808
F71155040.0
sa(dp809
S'num_runs'
p810
I2
sS'total_sum'
p811
F9.998201195382174e+165
sS'block_size'
p812
I284
sS'flops_cycle'
p813
F0.613758
sS'cycles'
p814
F74642731.0
sa(dp815
S'num_runs'
p816
I2
sS'total_sum'
p817
F8.178965766544568e+274
sS'block_size'
p818
I288
sS'flops_cycle'
p819
F0.578376
sS'cycles'
p820
F82603199.0
sa(dp821
S'num_runs'
p822
I2
sS'total_sum'
p823
F9.473334547928832e+62
sS'block_size'
p824
I292
sS'flops_cycle'
p825
F0.611183
sS'cycles'
p826
F81471849.0
sa(dp827
S'num_runs'
p828
I2
sS'total_sum'
p829
F6.833210505245094e+207
sS'block_size'
p830
I296
sS'flops_cycle'
p831
F0.614187
sS'cycles'
p832
F84450955.5
sa(dp833
S'num_runs'
p834
I2
sS'total_sum'
p835
F33893532.03843
sS'block_size'
p836
I300
sS'flops_cycle'
p837
F0.605383
sS'cycles'
p838
F89199788.5
sa(dp839
S'num_runs'
p840
I2
sS'total_sum'
p841
F7.730236763099581e+155
sS'block_size'
p842
I304
sS'flops_cycle'
p843
F0.588468
sS'cycles'
p844
F95483377.5
sa(dp845
S'num_runs'
p846
I2
sS'total_sum'
p847
F36634905.84745
sS'block_size'
p848
I308
sS'flops_cycle'
p849
F0.605293
sS'cycles'
p850
F96541977.5
sa(dp851
S'num_runs'
p852
I2
sS'total_sum'
p853
F38069559.922108
sS'block_size'
p854
I312
sS'flops_cycle'
p855
F0.613568
sS'cycles'
p856
F98999075.5
sa(dp857
S'num_runs'
p858
I1
sS'total_sum'
p859
F15758343.225028
sS'block_size'
p860
I316
sS'flops_cycle'
p861
F0.602584
sS'cycles'
p862
F104730530.0
sa(dp863
S'num_runs'
p864
I1
sS'total_sum'
p865
F16366059.734687
sS'block_size'
p866
I320
sS'flops_cycle'
p867
F0.52082
sS'cycles'
p868
F125832290.0
sa(dp869
S'num_runs'
p870
I1
sS'total_sum'
p871
F1.2087296525203398e+192
sS'block_size'
p872
I324
sS'flops_cycle'
p873
F0.607491
sS'cycles'
p874
F111975995.0
sa(dp875
S'num_runs'
p876
I1
sS'total_sum'
p877
F4.564836090103941e+286
sS'block_size'
p878
I328
sS'flops_cycle'
p879
F0.612304
sS'cycles'
p880
F115261617.0
sa(dp881
S'num_runs'
p882
I1
sS'total_sum'
p883
F18441596.55331
sS'block_size'
p884
I332
sS'flops_cycle'
p885
F0.601134
sS'cycles'
p886
F121751164.0
sa(dp887
S'num_runs'
p888
I1
sS'total_sum'
p889
F19125635.178399
sS'block_size'
p890
I336
sS'flops_cycle'
p891
F0.585162
sS'cycles'
p892
F129649752.0
sa(dp893
S'num_runs'
p894
I1
sS'total_sum'
p895
F19813455.341914
sS'block_size'
p896
I340
sS'flops_cycle'
p897
F0.604869
sS'cycles'
p898
F129958749.0
sa(dp899
S'num_runs'
p900
I1
sS'total_sum'
p901
F20513795.334191
sS'block_size'
p902
I344
sS'flops_cycle'
p903
F0.610726
sS'cycles'
p904
F133308779.0
sa(dp905
S'num_runs'
p906
I1
sS'total_sum'
p907
F3.4564386851509386e+131
sS'block_size'
p908
I348
sS'flops_cycle'
p909
F0.600684
sS'cycles'
p910
F140320765.0
sa(dp911
S'num_runs'
p912
I1
sS'total_sum'
p913
F5.9592915930701186e+97
sS'block_size'
p914
I352
sS'flops_cycle'
p915
F0.559714
sS'cycles'
p916
F155844755.0
sa(dp917
S'num_runs'
p918
I1
sS'total_sum'
p919
F24360593.107327
sS'block_size'
p920
I356
sS'flops_cycle'
p921
F0.602991
sS'cycles'
p922
F149647338.0
sa(dp923
S'num_runs'
p924
I1
sS'total_sum'
p925
F23438819.072248
sS'block_size'
p926
I360
sS'flops_cycle'
p927
F0.610659
sS'cycles'
p928
F152805495.0
sa(dp929
S'num_runs'
p930
I1
sS'total_sum'
p931
F24274453.908005
sS'block_size'
p932
I364
sS'flops_cycle'
p933
F0.598122
sS'cycles'
p934
F161266453.0
sa(dp935
S'num_runs'
p936
I1
sS'total_sum'
p937
F1.3355319399106435e+63
sS'block_size'
p938
I368
sS'flops_cycle'
p939
F0.583543
sS'cycles'
p940
F170805080.0
sa(dp941
S'num_runs'
p942
I1
sS'total_sum'
p943
F25923272.150265
sS'block_size'
p944
I372
sS'flops_cycle'
p945
F0.603164
sS'cycles'
p946
F170696149.0
sa(dp947
S'num_runs'
p948
I1
sS'total_sum'
p949
F26759483.837741
sS'block_size'
p950
I376
sS'flops_cycle'
p951
F0.608724
sS'cycles'
p952
F174651832.0
sa(dp953
S'num_runs'
p954
I1
sS'total_sum'
p955
F2.3084254853370266e+55
sS'block_size'
p956
I380
sS'flops_cycle'
p957
F0.594988
sS'cycles'
p958
F184447363.0
sa(dp959
S'num_runs'
p960
I1
sS'total_sum'
p961
F2.4416692130881353e+54
sS'block_size'
p962
I384
sS'flops_cycle'
p963
F0.481426
sS'cycles'
p964
F235230768.0
sa(dp965
S'num_runs'
p966
I1
sS'total_sum'
p967
F6.700089898840279e+184
sS'block_size'
p968
I388
sS'flops_cycle'
p969
F0.596021
sS'cycles'
p970
F196003391.0
sa(dp971
S'num_runs'
p972
I1
sS'total_sum'
p973
F30253953.68306
sS'block_size'
p974
I392
sS'flops_cycle'
p975
F0.602494
sS'cycles'
p976
F199956516.0
sa(dp977
S'num_runs'
p978
I1
sS'total_sum'
p979
F2.5367265197392187e+153
sS'block_size'
p980
I396
sS'flops_cycle'
p981
F0.596957
sS'cycles'
p982
F208052130.0
sa(dp983
S'num_runs'
p984
I1
sS'total_sum'
p985
F32137442.139513
sS'block_size'
p986
I400
sS'flops_cycle'
p987
F0.581554
sS'cycles'
p988
F220099884.0
sa(dp989
S'num_runs'
p990
I1
sS'total_sum'
p991
F1.0678388742309539e+238
sS'block_size'
p992
I404
sS'flops_cycle'
p993
F0.596584
sS'cycles'
p994
F221056120.0
sa(dp995
S'num_runs'
p996
I1
sS'total_sum'
p997
F34116830.620608
sS'block_size'
p998
I408
sS'flops_cycle'
p999
F0.600094
sS'cycles'
p1000
F226355516.0
sa(dp1001
S'num_runs'
p1002
I1
sS'total_sum'
p1003
F5.4172084248648516e+147
sS'block_size'
p1004
I412
sS'flops_cycle'
p1005
F0.578923
sS'cycles'
p1006
F241602310.0
sa(dp1007
S'num_runs'
p1008
I1
sS'total_sum'
p1009
F36144971.87899
sS'block_size'
p1010
I416
sS'flops_cycle'
p1011
F0.539409
sS'cycles'
p1012
F266926593.0
sa(dp1013
S'num_runs'
p1014
I1
sS'total_sum'
p1015
F4.558824706397649e+250
sS'block_size'
p1016
I420
sS'flops_cycle'
p1017
F0.588624
sS'cycles'
p1018
F251732978.0
sa(dp1019
S'num_runs'
p1020
I1
sS'total_sum'
p1021
F6.912100124851203e+271
sS'block_size'
p1022
I424
sS'flops_cycle'
p1023
F0.600466
sS'cycles'
p1024
F253886165.0
sa(dp1025
S'num_runs'
p1026
I1
sS'total_sum'
p1027
F39292204.27112
sS'block_size'
p1028
I428
sS'flops_cycle'
p1029
F0.590831
sS'cycles'
p1030
F265398333.0
sa(dp1031
S'num_runs'
p1032
I1
sS'total_sum'
p1033
F4.637365036874569e+118
sS'block_size'
p1034
I432
sS'flops_cycle'
p1035
F0.57106
sS'cycles'
p1036
F282357465.0
sa(dp1037
S'num_runs'
p1038
I1
sS'total_sum'
p1039
F41570697.143127
sS'block_size'
p1040
I436
sS'flops_cycle'
p1041
F0.588842
sS'cycles'
p1042
F281507934.0
sa(dp1043
S'num_runs'
p1044
I1
sS'total_sum'
p1045
F4.3258408716333696e+266
sS'block_size'
p1046
I440
sS'flops_cycle'
p1047
F0.594641
sS'cycles'
p1048
F286505410.0
sa(dp1049
S'num_runs'
p1050
I1
sS'total_sum'
p1051
F9.76068936717045e+254
sS'block_size'
p1052
I444
sS'flops_cycle'
p1053
F0.568288
sS'cycles'
p1054
F308042229.0
sa(dp1055
S'num_runs'
p1056
I1
sS'total_sum'
p1057
F45011847.996918
sS'block_size'
p1058
I448
sS'flops_cycle'
p1059
F0.486937
sS'cycles'
p1060
F369310108.0
sa(dp1061
S'num_runs'
p1062
I1
sS'total_sum'
p1063
F46223502.807963
sS'block_size'
p1064
I452
sS'flops_cycle'
p1065
F0.579793
sS'cycles'
p1066
F318546380.0
sa(dp1067
S'num_runs'
p1068
I1
sS'total_sum'
p1069
F1.2035849484325071e+199
sS'block_size'
p1070
I456
sS'flops_cycle'
p1071
F0.586082
sS'cycles'
p1072
F323568236.0
sa(dp1073
S'num_runs'
p1074
I1
sS'total_sum'
p1075
F48592030.650828
sS'block_size'
p1076
I460
sS'flops_cycle'
p1077
F0.576236
sS'cycles'
p1078
F337833918.0
sa(dp1079
S'num_runs'
p1080
I1
sS'total_sum'
p1081
F9.891105017067743e+145
sS'block_size'
p1082
I464
sS'flops_cycle'
p1083
F0.573828
sS'cycles'
p1084
F348178758.0
sa(dp1085
S'num_runs'
p1086
I1
sS'total_sum'
p1087
F51382618.204456
sS'block_size'
p1088
I468
sS'flops_cycle'
p1089
F0.577353
sS'cycles'
p1090
F355080093.0
sa(dp1091
S'num_runs'
p1092
I1
sS'total_sum'
p1093
F3.3900267834529826e+198
sS'block_size'
p1094
I472
sS'flops_cycle'
p1095
F0.573983
sS'cycles'
p1096
F366401428.0
sa(dp1097
S'num_runs'
p1098
I1
sS'total_sum'
p1099
F54078837.571168
sS'block_size'
p1100
I476
sS'flops_cycle'
p1101
F0.57052
sS'cycles'
p1102
F378076980.0
sa(dp1103
S'num_runs'
p1104
I1
sS'total_sum'
p1105
F1.4158420074408513e+33
sS'block_size'
p1106
I480
sS'flops_cycle'
p1107
F0.489242
sS'cycles'
p1108
F452095683.0
sa(dp1109
S'num_runs'
p1110
I1
sS'total_sum'
p1111
F56844253.265489
sS'block_size'
p1112
I484
sS'flops_cycle'
p1113
F0.490432
sS'cycles'
p1114
F462367141.0
sa(dp1115
S'num_runs'
p1116
I1
sS'total_sum'
p1117
F58280349.523548
sS'block_size'
p1118
I488
sS'flops_cycle'
p1119
F0.51107
sS'cycles'
p1120
F454788178.0
sa(dp1121
S'num_runs'
p1122
I1
sS'total_sum'
p1123
F59727423.002251
sS'block_size'
p1124
I492
sS'flops_cycle'
p1125
F0.430656
sS'cycles'
p1126
F553089283.0
sa(dp1127
S'num_runs'
p1128
I1
sS'total_sum'
p1129
F4.402852890044353e+288
sS'block_size'
p1130
I496
sS'flops_cycle'
p1131
F0.559722
sS'cycles'
p1132
F436016365.0
sa(dp1133
S'num_runs'
p1134
I1
sS'total_sum'
p1135
F1.0884950079048858e+241
sS'block_size'
p1136
I500
sS'flops_cycle'
p1137
F0.493669
sS'cycles'
p1138
F506411801.0
sa(dp1139
S'num_runs'
p1140
I1
sS'total_sum'
p1141
F1.2989355030300587e+271
sS'block_size'
p1142
I504
sS'flops_cycle'
p1143
F0.519362
sS'cycles'
p1144
F493004926.0
sa(dp1145
S'num_runs'
p1146
I1
sS'total_sum'
p1147
F9.484146586135514e+306
sS'block_size'
p1148
I508
sS'flops_cycle'
p1149
F0.530441
sS'cycles'
p1150
F494292753.0
sa(dp1151
S'num_runs'
p1152
I1
sS'total_sum'
p1153
F4.594411752561682e+193
sS'block_size'
p1154
I512
sS'flops_cycle'
p1155
F0.240071
sS'cycles'
p1156
F1118150744.0
sa(dp1157
S'num_runs'
p1158
I1
sS'total_sum'
p1159
F3.380314447486686e+224
sS'block_size'
p1160
I516
sS'flops_cycle'
p1161
F0.43575
sS'cycles'
p1162
F630581655.0
sasS'code2.c'
p1163
(lp1164
(dp1165
S'num_runs'
p1166
I1048576
sS'total_sum'
p1167
F46170448.708854
sS'block_size'
p1168
I4
sS'flops_cycle'
p1169
F1.297601
sS'cycles'
p1170
F98.64358
sa(dp1171
S'num_runs'
p1172
I131072
sS'total_sum'
p1173
F5.381344041413575e+110
sS'block_size'
p1174
I8
sS'flops_cycle'
p1175
F1.230612
sS'cycles'
p1176
F832.106628
sa(dp1177
S'num_runs'
p1178
I65536
sS'total_sum'
p1179
F2.445629379910953e+93
sS'block_size'
p1180
I12
sS'flops_cycle'
p1181
F1.235551
sS'cycles'
p1182
F2797.133591
sa(dp1183
S'num_runs'
p1184
I16384
sS'total_sum'
p1185
F6.665745272519233e+198
sS'block_size'
p1186
I16
sS'flops_cycle'
p1187
F1.103185
sS'cycles'
p1188
F7425.771301
sa(dp1189
S'num_runs'
p1190
I8192
sS'total_sum'
p1191
F51413221.774497
sS'block_size'
p1192
I20
sS'flops_cycle'
p1193
F1.199148
sS'cycles'
p1194
F13342.803101
sa(dp1195
S'num_runs'
p1196
I4096
sS'total_sum'
p1197
F42977876.210012
sS'block_size'
p1198
I24
sS'flops_cycle'
p1199
F1.025189
sS'cycles'
p1200
F26968.684326
sa(dp1201
S'num_runs'
p1202
I4096
sS'total_sum'
p1203
F66904574.983977
sS'block_size'
p1204
I28
sS'flops_cycle'
p1205
F1.047832
sS'cycles'
p1206
F41899.854736
sa(dp1207
S'num_runs'
p1208
I2048
sS'total_sum'
p1209
F8.34901095951096e+93
sS'block_size'
p1210
I32
sS'flops_cycle'
p1211
F1.018026
sS'cycles'
p1212
F64375.567871
sa(dp1213
S'num_runs'
p1214
I2048
sS'total_sum'
p1215
F71793972.801261
sS'block_size'
p1216
I36
sS'flops_cycle'
p1217
F1.044286
sS'cycles'
p1218
F89354.85791
sa(dp1219
S'num_runs'
p1220
I1024
sS'total_sum'
p1221
F5.116272887706398e+78
sS'block_size'
p1222
I40
sS'flops_cycle'
p1223
F1.020251
sS'cycles'
p1224
F125459.269531
sa(dp1225
S'num_runs'
p1226
I1024
sS'total_sum'
p1227
F1.6676808124754838e+108
sS'block_size'
p1228
I44
sS'flops_cycle'
p1229
F1.046107
sS'cycles'
p1230
F162859.008789
sa(dp1231
S'num_runs'
p1232
I512
sS'total_sum'
p1233
F3.949715523416329e+210
sS'block_size'
p1234
I48
sS'flops_cycle'
p1235
F1.025345
sS'cycles'
p1236
F215716.605469
sa(dp1237
S'num_runs'
p1238
I512
sS'total_sum'
p1239
F1.131676415993334e+129
sS'block_size'
p1240
I52
sS'flops_cycle'
p1241
F1.043067
sS'cycles'
p1242
F269604.908203
sa(dp1243
S'num_runs'
p1244
I512
sS'total_sum'
p1245
F66952928.401671
sS'block_size'
p1246
I56
sS'flops_cycle'
p1247
F1.034572
sS'cycles'
p1248
F339495.101562
sa(dp1249
S'num_runs'
p1250
I256
sS'total_sum'
p1251
F41179046.228953
sS'block_size'
p1252
I60
sS'flops_cycle'
p1253
F1.027498
sS'cycles'
p1254
F420438.667969
sa(dp1255
S'num_runs'
p1256
I256
sS'total_sum'
p1257
F51193749.000759
sS'block_size'
p1258
I64
sS'flops_cycle'
p1259
F0.968794
sS'cycles'
p1260
F541175.667969
sa(dp1261
S'num_runs'
p1262
I256
sS'total_sum'
p1263
F2.2624566364231377e+80
sS'block_size'
p1264
I68
sS'flops_cycle'
p1265
F0.98809
sS'cycles'
p1266
F636443.933594
sa(dp1267
S'num_runs'
p1268
I256
sS'total_sum'
p1269
F2.3442204388452754e+23
sS'block_size'
p1270
I72
sS'flops_cycle'
p1271
F0.988681
sS'cycles'
p1272
F755042.230469
sa(dp1273
S'num_runs'
p1274
I128
sS'total_sum'
p1275
F41250944.933378
sS'block_size'
p1276
I76
sS'flops_cycle'
p1277
F0.993709
sS'cycles'
p1278
F883510.265625
sa(dp1279
S'num_runs'
p1280
I128
sS'total_sum'
p1281
F2.5535838821882258e+150
sS'block_size'
p1282
I80
sS'flops_cycle'
p1283
F0.982315
sS'cycles'
p1284
F1042434.945312
sa(dp1285
S'num_runs'
p1286
I128
sS'total_sum'
p1287
F2.8066622390422978e+267
sS'block_size'
p1288
I84
sS'flops_cycle'
p1289
F0.995308
sS'cycles'
p1290
F1190995.742188
sa(dp1291
S'num_runs'
p1292
I128
sS'total_sum'
p1293
F2.929084709346471e+306
sS'block_size'
p1294
I88
sS'flops_cycle'
p1295
F0.990448
sS'cycles'
p1296
F1376088.90625
sa(dp1297
S'num_runs'
p1298
I64
sS'total_sum'
p1299
F7.518514692352656e+29
sS'block_size'
p1300
I92
sS'flops_cycle'
p1301
F0.992877
sS'cycles'
p1302
F1568548.5625
sa(dp1303
S'num_runs'
p1304
I64
sS'total_sum'
p1305
F42887938.166799
sS'block_size'
p1306
I96
sS'flops_cycle'
p1307
F0.979582
sS'cycles'
p1308
F1806353.65625
sa(dp1309
S'num_runs'
p1310
I64
sS'total_sum'
p1311
F4.979867135509857e+53
sS'block_size'
p1312
I100
sS'flops_cycle'
p1313
F0.993048
sS'cycles'
p1314
F2014001.84375
sa(dp1315
S'num_runs'
p1316
I64
sS'total_sum'
p1317
F54129035.725629
sS'block_size'
p1318
I104
sS'flops_cycle'
p1319
F0.990836
sS'cycles'
p1320
F2270535.421875
sa(dp1321
S'num_runs'
p1322
I64
sS'total_sum'
p1323
F2.9685681915815916e+82
sS'block_size'
p1324
I108
sS'flops_cycle'
p1325
F0.999622
sS'cycles'
p1326
F2520377.8125
sa(dp1327
S'num_runs'
p1328
I64
sS'total_sum'
p1329
F1.3814401753051556e+22
sS'block_size'
p1330
I112
sS'flops_cycle'
p1331
F0.985369
sS'cycles'
p1332
F2851577.875
sa(dp1333
S'num_runs'
p1334
I32
sS'total_sum'
p1335
F1.2387958112111755e+76
sS'block_size'
p1336
I116
sS'flops_cycle'
p1337
F0.998086
sS'cycles'
p1338
F3127778.53125
sa(dp1339
S'num_runs'
p1340
I32
sS'total_sum'
p1341
F1.3704905678569416e+253
sS'block_size'
p1342
I120
sS'flops_cycle'
p1343
F0.987572
sS'cycles'
p1344
F3499490.6875
sa(dp1345
S'num_runs'
p1346
I32
sS'total_sum'
p1347
F44891951.166528
sS'block_size'
p1348
I124
sS'flops_cycle'
p1349
F0.997165
sS'cycles'
p1350
F3824090.34375
sa(dp1351
S'num_runs'
p1352
I32
sS'total_sum'
p1353
F49391104.022864
sS'block_size'
p1354
I128
sS'flops_cycle'
p1355
F0.823854
sS'cycles'
p1356
F5091075.46875
sa(dp1357
S'num_runs'
p1358
I32
sS'total_sum'
p1359
F1.6164399293803226e+16
sS'block_size'
p1360
I132
sS'flops_cycle'
p1361
F0.994212
sS'cycles'
p1362
F4626715.125
sa(dp1363
S'num_runs'
p1364
I32
sS'total_sum'
p1365
F59062499.182656
sS'block_size'
p1366
I136
sS'flops_cycle'
p1367
F0.953359
sS'cycles'
p1368
F5277039.1875
sa(dp1369
S'num_runs'
p1370
I32
sS'total_sum'
p1371
F64328570.530417
sS'block_size'
p1372
I140
sS'flops_cycle'
p1373
F0.95497
sS'cycles'
p1374
F5746775.78125
sa(dp1375
S'num_runs'
p1376
I16
sS'total_sum'
p1377
F4.024057417247122e+102
sS'block_size'
p1378
I144
sS'flops_cycle'
p1379
F0.913993
sS'cycles'
p1380
F6533934.25
sa(dp1381
S'num_runs'
p1382
I16
sS'total_sum'
p1383
F38017642.365506
sS'block_size'
p1384
I148
sS'flops_cycle'
p1385
F0.981411
sS'cycles'
p1386
F6606387.3125
sa(dp1387
S'num_runs'
p1388
I16
sS'total_sum'
p1389
F41226348.309692
sS'block_size'
p1390
I152
sS'flops_cycle'
p1391
F0.960765
sS'cycles'
p1392
F7310444.5
sa(dp1393
S'num_runs'
p1394
I16
sS'total_sum'
p1395
F1.1112241851849616e+254
sS'block_size'
p1396
I156
sS'flops_cycle'
p1397
F0.919782
sS'cycles'
p1398
F8255030.9375
sa(dp1399
S'num_runs'
p1400
I16
sS'total_sum'
p1401
F1.9440210856843956e+289
sS'block_size'
p1402
I160
sS'flops_cycle'
p1403
F0.83268
sS'cycles'
p1404
F9838115.1875
sa(dp1405
S'num_runs'
p1406
I16
sS'total_sum'
p1407
F7.954027878064814e+26
sS'block_size'
p1408
I164
sS'flops_cycle'
p1409
F0.899377
sS'cycles'
p1410
F9808883.375
sa(dp1411
S'num_runs'
p1412
I16
sS'total_sum'
p1413
F2.3138090133309567e+275
sS'block_size'
p1414
I168
sS'flops_cycle'
p1415
F0.928359
sS'cycles'
p1416
F10215083.25
sa(dp1417
S'num_runs'
p1418
I16
sS'total_sum'
p1419
F7.074089069069293e+219
sS'block_size'
p1420
I172
sS'flops_cycle'
p1421
F0.943079
sS'cycles'
p1422
F10791133.3125
sa(dp1423
S'num_runs'
p1424
I16
sS'total_sum'
p1425
F63785989.270233
sS'block_size'
p1426
I176
sS'flops_cycle'
p1427
F0.896987
sS'cycles'
p1428
F12155747.375
sa(dp1429
S'num_runs'
p1430
I16
sS'total_sum'
p1431
F3.258521092674239e+296
sS'block_size'
p1432
I180
sS'flops_cycle'
p1433
F0.937696
sS'cycles'
p1434
F12439005.3125
sa(dp1435
S'num_runs'
p1436
I8
sS'total_sum'
p1437
F36094582.298829
sS'block_size'
p1438
I184
sS'flops_cycle'
p1439
F0.918805
sS'cycles'
p1440
F13560012.5
sa(dp1441
S'num_runs'
p1442
I8
sS'total_sum'
p1443
F873200574146854.8
sS'block_size'
p1444
I188
sS'flops_cycle'
p1445
F0.906876
sS'cycles'
p1446
F14653978.625
sa(dp1447
S'num_runs'
p1448
I8
sS'total_sum'
p1449
F1.5341025242195647e+308
sS'block_size'
p1450
I192
sS'flops_cycle'
p1451
F0.774328
sS'cycles'
p1452
F18281369.0
sa(dp1453
S'num_runs'
p1454
I8
sS'total_sum'
p1455
F7.423139094410326e+67
sS'block_size'
p1456
I196
sS'flops_cycle'
p1457
F0.883981
sS'cycles'
p1458
F17035506.375
sa(dp1459
S'num_runs'
p1460
I8
sS'total_sum'
p1461
F45994807.009406
sS'block_size'
p1462
I200
sS'flops_cycle'
p1463
F0.870965
sS'cycles'
p1464
F18370426.375
sa(dp1465
S'num_runs'
p1466
I8
sS'total_sum'
p1467
F48731864.070363
sS'block_size'
p1468
I204
sS'flops_cycle'
p1469
F0.858784
sS'cycles'
p1470
F19771369.875
sa(dp1471
S'num_runs'
p1472
I8
sS'total_sum'
p1473
F51649552.455907
sS'block_size'
p1474
I208
sS'flops_cycle'
p1475
F0.821486
sS'cycles'
p1476
F21908863.375
sa(dp1477
S'num_runs'
p1478
I8
sS'total_sum'
p1479
F4454658912.578821
sS'block_size'
p1480
I212
sS'flops_cycle'
p1481
F0.840962
sS'cycles'
p1482
F22660076.0
sa(dp1483
S'num_runs'
p1484
I8
sS'total_sum'
p1485
F58261968.561809
sS'block_size'
p1486
I216
sS'flops_cycle'
p1487
F0.865073
sS'cycles'
p1488
F23299064.75
sa(dp1489
S'num_runs'
p1490
I4
sS'total_sum'
p1491
F29474443.243095
sS'block_size'
p1492
I220
sS'flops_cycle'
p1493
F0.832736
sS'cycles'
p1494
F25573518.0
sa(dp1495
S'num_runs'
p1496
I4
sS'total_sum'
p1497
F3577397695898717.0
sS'block_size'
p1498
I224
sS'flops_cycle'
p1499
F0.764349
sS'cycles'
p1500
F29409155.75
sa(dp1501
S'num_runs'
p1502
I4
sS'total_sum'
p1503
F32449630.43509
sS'block_size'
p1504
I228
sS'flops_cycle'
p1505
F0.833187
sS'cycles'
p1506
F28450629.5
sa(dp1507
S'num_runs'
p1508
I4
sS'total_sum'
p1509
F5.033807282520697e+17
sS'block_size'
p1510
I232
sS'flops_cycle'
p1511
F0.845181
sS'cycles'
p1512
F29549099.0
sa(dp1513
S'num_runs'
p1514
I4
sS'total_sum'
p1515
F2.1410503551814368e+241
sS'block_size'
p1516
I236
sS'flops_cycle'
p1517
F0.829863
sS'cycles'
p1518
F31678119.25
sa(dp1519
S'num_runs'
p1520
I4
sS'total_sum'
p1521
F4.2422960888911275e+46
sS'block_size'
p1522
I240
sS'flops_cycle'
p1523
F0.778722
sS'cycles'
p1524
F35504320.0
sa(dp1525
S'num_runs'
p1526
I4
sS'total_sum'
p1527
F40051100.068842
sS'block_size'
p1528
I244
sS'flops_cycle'
p1529
F0.81881
sS'cycles'
p1530
F35482690.25
sa(dp1531
S'num_runs'
p1532
I4
sS'total_sum'
p1533
F42062228.060709
sS'block_size'
p1534
I248
sS'flops_cycle'
p1535
F0.84004
sS'cycles'
p1536
F36314900.0
sa(dp1537
S'num_runs'
p1538
I4
sS'total_sum'
p1539
F44123491.183543
sS'block_size'
p1540
I252
sS'flops_cycle'
p1541
F0.821652
sS'cycles'
p1542
F38953273.0
sa(dp1543
S'num_runs'
p1544
I2
sS'total_sum'
p1545
F20993649.157595
sS'block_size'
p1546
I256
sS'flops_cycle'
p1547
F0.564535
sS'cycles'
p1548
F59437255.0
sa(dp1549
S'num_runs'
p1550
I4
sS'total_sum'
p1551
F48895263.293071
sS'block_size'
p1552
I260
sS'flops_cycle'
p1553
F0.841812
sS'cycles'
p1554
F41757556.5
sa(dp1555
S'num_runs'
p1556
I4
sS'total_sum'
p1557
F50584671.519782
sS'block_size'
p1558
I264
sS'flops_cycle'
p1559
F0.845077
sS'cycles'
p1560
F43545739.25
sa(dp1561
S'num_runs'
p1562
I4
sS'total_sum'
p1563
F2.1824802952889048e+203
sS'block_size'
p1564
I268
sS'flops_cycle'
p1565
F0.826892
sS'cycles'
p1566
F46557069.5
sa(dp1567
S'num_runs'
p1568
I2
sS'total_sum'
p1569
F25205931.244679
sS'block_size'
p1570
I272
sS'flops_cycle'
p1571
F0.769787
sS'cycles'
p1572
F52283670.0
sa(dp1573
S'num_runs'
p1574
I2
sS'total_sum'
p1575
F26333928.32697
sS'block_size'
p1576
I276
sS'flops_cycle'
p1577
F0.814477
sS'cycles'
p1578
F51627209.5
sa(dp1579
S'num_runs'
p1580
I2
sS'total_sum'
p1581
F27492131.790773
sS'block_size'
p1582
I280
sS'flops_cycle'
p1583
F0.837906
sS'cycles'
p1584
F52397293.0
sa(dp1585
S'num_runs'
p1586
I2
sS'total_sum'
p1587
F28706801.733568
sS'block_size'
p1588
I284
sS'flops_cycle'
p1589
F0.810367
sS'cycles'
p1590
F56533167.5
sa(dp1591
S'num_runs'
p1592
I2
sS'total_sum'
p1593
F2.433517360338373e+89
sS'block_size'
p1594
I288
sS'flops_cycle'
p1595
F0.751617
sS'cycles'
p1596
F63563962.0
sa(dp1597
S'num_runs'
p1598
I2
sS'total_sum'
p1599
F31202966.047105
sS'block_size'
p1600
I292
sS'flops_cycle'
p1601
F0.809678
sS'cycles'
p1602
F61498770.5
sa(dp1603
S'num_runs'
p1604
I2
sS'total_sum'
p1605
F32469603.790929
sS'block_size'
p1606
I296
sS'flops_cycle'
p1607
F0.837628
sS'cycles'
p1608
F61923304.5
sa(dp1609
S'num_runs'
p1610
I2
sS'total_sum'
p1611
F33771340.219957
sS'block_size'
p1612
I300
sS'flops_cycle'
p1613
F0.803649
sS'cycles'
p1614
F67193507.5
sa(dp1615
S'num_runs'
p1616
I2
sS'total_sum'
p1617
F35158773.917797
sS'block_size'
p1618
I304
sS'flops_cycle'
p1619
F0.760374
sS'cycles'
p1620
F73896460.0
sa(dp1621
S'num_runs'
p1622
I2
sS'total_sum'
p1623
F36550150.452734
sS'block_size'
p1624
I308
sS'flops_cycle'
p1625
F0.799163
sS'cycles'
p1626
F73121770.0
sa(dp1627
S'num_runs'
p1628
I2
sS'total_sum'
p1629
F38097491.745345
sS'block_size'
p1630
I312
sS'flops_cycle'
p1631
F0.835749
sS'cycles'
p1632
F72680537.0
sa(dp1633
S'num_runs'
p1634
I2
sS'total_sum'
p1635
F2.6663618936544458e+184
sS'block_size'
p1636
I316
sS'flops_cycle'
p1637
F0.8051
sS'cycles'
p1638
F78386485.0
sa(dp1639
S'num_runs'
p1640
I2
sS'total_sum'
p1641
F1.0287445595888315e+243
sS'block_size'
p1642
I320
sS'flops_cycle'
p1643
F0.670132
sS'cycles'
p1644
F97795725.0
sa(dp1645
S'num_runs'
p1646
I2
sS'total_sum'
p1647
F42686632.998092
sS'block_size'
p1648
I324
sS'flops_cycle'
p1649
F0.802451
sS'cycles'
p1650
F84770869.0
sa(dp1651
S'num_runs'
p1652
I2
sS'total_sum'
p1653
F44441913.818736
sS'block_size'
p1654
I328
sS'flops_cycle'
p1655
F0.832357
sS'cycles'
p1656
F84789438.0
sa(dp1657
S'num_runs'
p1658
I2
sS'total_sum'
p1659
F4.35726002163138e+154
sS'block_size'
p1660
I332
sS'flops_cycle'
p1661
F0.800795
sS'cycles'
p1662
F91395133.0
sa(dp1663
S'num_runs'
p1664
I1
sS'total_sum'
p1665
F19138343.487925
sS'block_size'
p1666
I336
sS'flops_cycle'
p1667
F0.752442
sS'cycles'
p1668
F100826569.0
sa(dp1669
S'num_runs'
p1670
I2
sS'total_sum'
p1671
F3.5859537240987597e+289
sS'block_size'
p1672
I340
sS'flops_cycle'
p1673
F0.792813
sS'cycles'
p1674
F99150766.0
sa(dp1675
S'num_runs'
p1676
I2
sS'total_sum'
p1677
F5.064625645274304e+24
sS'block_size'
p1678
I344
sS'flops_cycle'
p1679
F0.832837
sS'cycles'
p1680
F97756445.0
sa(dp1681
S'num_runs'
p1682
I1
sS'total_sum'
p1683
F7.104049370069931e+259
sS'block_size'
p1684
I348
sS'flops_cycle'
p1685
F0.798028
sS'cycles'
p1686
F105620791.0
sa(dp1687
S'num_runs'
p1688
I1
sS'total_sum'
p1689
F21814519.062564
sS'block_size'
p1690
I352
sS'flops_cycle'
p1691
F0.72808
sS'cycles'
p1692
F119806012.0
sa(dp1693
S'num_runs'
p1694
I1
sS'total_sum'
p1695
F5.921248895611129e+143
sS'block_size'
p1696
I356
sS'flops_cycle'
p1697
F0.789408
sS'cycles'
p1698
F114308443.0
sa(dp1699
S'num_runs'
p1700
I1
sS'total_sum'
p1701
F2.8676364534009034e+288
sS'block_size'
p1702
I360
sS'flops_cycle'
p1703
F0.829956
sS'cycles'
p1704
F112430079.0
sa(dp1705
S'num_runs'
p1706
I1
sS'total_sum'
p1707
F24169394.418154
sS'block_size'
p1708
I364
sS'flops_cycle'
p1709
F0.796803
sS'cycles'
p1710
F121055194.0
sa(dp1711
S'num_runs'
p1712
I1
sS'total_sum'
p1713
F2.1755701690381226e+80
sS'block_size'
p1714
I368
sS'flops_cycle'
p1715
F0.749035
sS'cycles'
p1716
F133067301.0
sa(dp1717
S'num_runs'
p1718
I1
sS'total_sum'
p1719
F25798232.313104
sS'block_size'
p1720
I372
sS'flops_cycle'
p1721
F0.792068
sS'cycles'
p1722
F129985962.0
sa(dp1723
S'num_runs'
p1724
I1
sS'total_sum'
p1725
F26637009.607573
sS'block_size'
p1726
I376
sS'flops_cycle'
p1727
F0.827372
sS'cycles'
p1728
F128496845.0
sa(dp1729
S'num_runs'
p1730
I1
sS'total_sum'
p1731
F5.203979832257495e+285
sS'block_size'
p1732
I380
sS'flops_cycle'
p1733
F0.788753
sS'cycles'
p1734
F139136112.0
sa(dp1735
S'num_runs'
p1736
I1
sS'total_sum'
p1737
F28365625.641166
sS'block_size'
p1738
I384
sS'flops_cycle'
p1739
F0.595295
sS'cycles'
p1740
F190235581.0
sa(dp1741
S'num_runs'
p1742
I1
sS'total_sum'
p1743
F5.358497193990942e+157
sS'block_size'
p1744
I388
sS'flops_cycle'
p1745
F0.775536
sS'cycles'
p1746
F150634048.0
sa(dp1747
S'num_runs'
p1748
I1
sS'total_sum'
p1749
F1.1214801520599773e+36
sS'block_size'
p1750
I392
sS'flops_cycle'
p1751
F0.818705
sS'cycles'
p1752
F147150227.0
sa(dp1753
S'num_runs'
p1754
I1
sS'total_sum'
p1755
F8.304949140239616e+131
sS'block_size'
p1756
I396
sS'flops_cycle'
p1757
F0.783816
sS'cycles'
p1758
F158453449.0
sa(dp1759
S'num_runs'
p1760
I1
sS'total_sum'
p1761
F3.5269910072652217e+230
sS'block_size'
p1762
I400
sS'flops_cycle'
p1763
F0.744944
sS'cycles'
p1764
F171824929.0
sa(dp1765
S'num_runs'
p1766
I1
sS'total_sum'
p1767
F33051946.667867
sS'block_size'
p1768
I404
sS'flops_cycle'
p1769
F0.759145
sS'cycles'
p1770
F173719791.0
sa(dp1771
S'num_runs'
p1772
I1
sS'total_sum'
p1773
F2.0100492325563825e+200
sS'block_size'
p1774
I408
sS'flops_cycle'
p1775
F0.793086
sS'cycles'
p1776
F171273489.0
sa(dp1777
S'num_runs'
p1778
I1
sS'total_sum'
p1779
F35058231.660144
sS'block_size'
p1780
I412
sS'flops_cycle'
p1781
F0.767353
sS'cycles'
p1782
F182274690.0
sa(dp1783
S'num_runs'
p1784
I1
sS'total_sum'
p1785
F35990101.616923
sS'block_size'
p1786
I416
sS'flops_cycle'
p1787
F0.669166
sS'cycles'
p1788
F215167096.0
sa(dp1789
S'num_runs'
p1790
I1
sS'total_sum'
p1791
F37054130.610617
sS'block_size'
p1792
I420
sS'flops_cycle'
p1793
F0.763286
sS'cycles'
p1794
F194129143.0
sa(dp1795
S'num_runs'
p1796
I1
sS'total_sum'
p1797
F38132804.626477
sS'block_size'
p1798
I424
sS'flops_cycle'
p1799
F0.727938
sS'cycles'
p1800
F209427289.0
sa(dp1801
S'num_runs'
p1802
I1
sS'total_sum'
p1803
F39196715.055714
sS'block_size'
p1804
I428
sS'flops_cycle'
p1805
F0.758854
sS'cycles'
p1806
F206634539.0
sa(dp1807
S'num_runs'
p1808
I1
sS'total_sum'
p1809
F40363686.397568
sS'block_size'
p1810
I432
sS'flops_cycle'
p1811
F0.737614
sS'cycles'
p1812
F218601068.0
sa(dp1813
S'num_runs'
p1814
I1
sS'total_sum'
p1815
F8.365672115031166e+191
sS'block_size'
p1816
I436
sS'flops_cycle'
p1817
F0.752285
sS'cycles'
p1818
F220346865.0
sa(dp1819
S'num_runs'
p1820
I1
sS'total_sum'
p1821
F42680778.474475
sS'block_size'
p1822
I440
sS'flops_cycle'
p1823
F0.698935
sS'cycles'
p1824
F243753732.0
sa(dp1825
S'num_runs'
p1826
I1
sS'total_sum'
p1827
F43886685.472028
sS'block_size'
p1828
I444
sS'flops_cycle'
p1829
F0.734267
sS'cycles'
p1830
F238410267.0
sa(dp1831
S'num_runs'
p1832
I1
sS'total_sum'
p1833
F3.9610705931032366e+125
sS'block_size'
p1834
I448
sS'flops_cycle'
p1835
F0.594552
sS'cycles'
p1836
F302464524.0
sa(dp1837
S'num_runs'
p1838
I1
sS'total_sum'
p1839
F4.618321290403381e+192
sS'block_size'
p1840
I452
sS'flops_cycle'
p1841
F0.733899
sS'cycles'
p1842
F251656901.0
sa(dp1843
S'num_runs'
p1844
I1
sS'total_sum'
p1845
F47556768.602474
sS'block_size'
p1846
I456
sS'flops_cycle'
p1847
F0.750092
sS'cycles'
p1848
F252819245.0
sa(dp1849
S'num_runs'
p1850
I1
sS'total_sum'
p1851
F48801842.136835
sS'block_size'
p1852
I460
sS'flops_cycle'
p1853
F0.7209
sS'cycles'
p1854
F270040202.0
sa(dp1855
S'num_runs'
p1856
I1
sS'total_sum'
p1857
F50075334.527747
sS'block_size'
p1858
I464
sS'flops_cycle'
p1859
F0.68948
sS'cycles'
p1860
F289776079.0
sa(dp1861
S'num_runs'
p1862
I1
sS'total_sum'
p1863
F51389804.691388
sS'block_size'
p1864
I468
sS'flops_cycle'
p1865
F0.705879
sS'cycles'
p1866
F290427370.0
sa(dp1867
S'num_runs'
p1868
I1
sS'total_sum'
p1869
F2.3079658136426767e+298
sS'block_size'
p1870
I472
sS'flops_cycle'
p1871
F0.6902
sS'cycles'
p1872
F304706076.0
sa(dp1873
S'num_runs'
p1874
I1
sS'total_sum'
p1875
F54069026.146524
sS'block_size'
p1876
I476
sS'flops_cycle'
p1877
F0.679188
sS'cycles'
p1878
F317585510.0
sa(dp1879
S'num_runs'
p1880
I1
sS'total_sum'
p1881
F55323165.763069
sS'block_size'
p1882
I480
sS'flops_cycle'
p1883
F0.575644
sS'cycles'
p1884
F384237188.0
sa(dp1885
S'num_runs'
p1886
I1
sS'total_sum'
p1887
F3.814525173728444e+304
sS'block_size'
p1888
I484
sS'flops_cycle'
p1889
F0.605512
sS'cycles'
p1890
F374492519.0
sa(dp1891
S'num_runs'
p1892
I1
sS'total_sum'
p1893
F1.8297228497216206e+240
sS'block_size'
p1894
I488
sS'flops_cycle'
p1895
F0.717044
sS'cycles'
p1896
F324148253.0
sa(dp1897
S'num_runs'
p1898
I1
sS'total_sum'
p1899
F3.920595428405728e+23
sS'block_size'
p1900
I492
sS'flops_cycle'
p1901
F0.693344
sS'cycles'
p1902
F343539259.0
sa(dp1903
S'num_runs'
p1904
I1
sS'total_sum'
p1905
F2.819986020403085e+194
sS'block_size'
p1906
I496
sS'flops_cycle'
p1907
F0.635618
sS'cycles'
p1908
F383953427.0
sa(dp1909
S'num_runs'
p1910
I1
sS'total_sum'
p1911
F1.002991061620859e+63
sS'block_size'
p1912
I500
sS'flops_cycle'
p1913
F0.681838
sS'cycles'
p1914
F366655761.0
sa(dp1915
S'num_runs'
p1916
I1
sS'total_sum'
p1917
F64120206.196235
sS'block_size'
p1918
I504
sS'flops_cycle'
p1919
F0.581483
sS'cycles'
p1920
F440336035.0
sa(dp1921
S'num_runs'
p1922
I1
sS'total_sum'
p1923
F65731123.427033
sS'block_size'
p1924
I508
sS'flops_cycle'
p1925
F0.614905
sS'cycles'
p1926
F426396204.0
sa(dp1927
S'num_runs'
p1928
I1
sS'total_sum'
p1929
F1.205724786067187e+184
sS'block_size'
p1930
I512
sS'flops_cycle'
p1931
F0.304138
sS'cycles'
p1932
F882611508.0
sa(dp1933
S'num_runs'
p1934
I1
sS'total_sum'
p1935
F69016237.250661
sS'block_size'
p1936
I516
sS'flops_cycle'
p1937
F0.558837
sS'cycles'
p1938
F491692544.0
sasS'code0.c'
p1939
(lp1940
(dp1941
S'num_runs'
p1942
I1048576
sS'total_sum'
p1943
F43403587.207658
sS'block_size'
p1944
I4
sS'flops_cycle'
p1945
F0.874371
sS'cycles'
p1946
F146.391029
sa(dp1947
S'num_runs'
p1948
I131072
sS'total_sum'
p1949
F54951009.614208
sS'block_size'
p1950
I8
sS'flops_cycle'
p1951
F0.87663
sS'cycles'
p1952
F1168.110321
sa(dp1953
S'num_runs'
p1954
I32768
sS'total_sum'
p1955
F2.529940343038294e+126
sS'block_size'
p1956
I12
sS'flops_cycle'
p1957
F0.849749
sS'cycles'
p1958
F4067.083221
sa(dp1959
S'num_runs'
p1960
I8192
sS'total_sum'
p1961
F1.1479485256421985e+132
sS'block_size'
p1962
I16
sS'flops_cycle'
p1963
F0.581496
sS'cycles'
p1964
F14087.80957
sa(dp1965
S'num_runs'
p1966
I4096
sS'total_sum'
p1967
F24233351.787751
sS'block_size'
p1968
I20
sS'flops_cycle'
p1969
F0.493401
sS'cycles'
p1970
F32427.990723
sa(dp1971
S'num_runs'
p1972
I2048
sS'total_sum'
p1973
F1.4392289478224973e+250
sS'block_size'
p1974
I24
sS'flops_cycle'
p1975
F0.497226
sS'cycles'
p1976
F55604.504883
sa(dp1977
S'num_runs'
p1978
I2048
sS'total_sum'
p1979
F32999823.178935
sS'block_size'
p1980
I28
sS'flops_cycle'
p1981
F0.499349
sS'cycles'
p1982
F87922.43457
sa(dp1983
S'num_runs'
p1984
I1024
sS'total_sum'
p1985
F25085776.836559
sS'block_size'
p1986
I32
sS'flops_cycle'
p1987
F0.488972
sS'cycles'
p1988
F134028.142578
sa(dp1989
S'num_runs'
p1990
I1024
sS'total_sum'
p1991
F35796859.682072
sS'block_size'
p1992
I36
sS'flops_cycle'
p1993
F0.502254
sS'cycles'
p1994
F185786.459961
sa(dp1995
S'num_runs'
p1996
I512
sS'total_sum'
p1997
F2.4519729973019972e+204
sS'block_size'
p1998
I40
sS'flops_cycle'
p1999
F0.439002
sS'cycles'
p2000
F291570.605469
sa(dp2001
S'num_runs'
p2002
I512
sS'total_sum'
p2003
F32821155.938909
sS'block_size'
p2004
I44
sS'flops_cycle'
p2005
F0.444706
sS'cycles'
p2006
F383102.619141
sa(dp2007
S'num_runs'
p2008
I256
sS'total_sum'
p2009
F22182062.282415
sS'block_size'
p2010
I48
sS'flops_cycle'
p2011
F0.441584
sS'cycles'
p2012
F500887.714844
sa(dp2013
S'num_runs'
p2014
I256
sS'total_sum'
p2015
F28075755.557809
sS'block_size'
p2016
I52
sS'flops_cycle'
p2017
F0.452981
sS'cycles'
p2018
F620811.714844
sa(dp2019
S'num_runs'
p2020
I256
sS'total_sum'
p2021
F6.914830669794145e+151
sS'block_size'
p2022
I56
sS'flops_cycle'
p2023
F0.456421
sS'cycles'
p2024
F769534.367188
sa(dp2025
S'num_runs'
p2026
I128
sS'total_sum'
p2027
F1.4816354439805176e+238
sS'block_size'
p2028
I60
sS'flops_cycle'
p2029
F0.456669
sS'cycles'
p2030
F945979.578125
sa(dp2031
S'num_runs'
p2032
I128
sS'total_sum'
p2033
F25699793.251298
sS'block_size'
p2034
I64
sS'flops_cycle'
p2035
F0.443232
sS'cycles'
p2036
F1182876.171875
sa(dp2037
S'num_runs'
p2038
I128
sS'total_sum'
p2039
F2.9659445168712097e+69
sS'block_size'
p2040
I68
sS'flops_cycle'
p2041
F0.459338
sS'cycles'
p2042
F1369065.132812
sa(dp2043
S'num_runs'
p2044
I64
sS'total_sum'
p2045
F5.5401641752440025e+35
sS'block_size'
p2046
I72
sS'flops_cycle'
p2047
F0.46418
sS'cycles'
p2048
F1608203.265625
sa(dp2049
S'num_runs'
p2050
I64
sS'total_sum'
p2051
F3.9612483945856194e+24
sS'block_size'
p2052
I76
sS'flops_cycle'
p2053
F0.467058
sS'cycles'
p2054
F1879750.953125
sa(dp2055
S'num_runs'
p2056
I64
sS'total_sum'
p2057
F24559205.273065
sS'block_size'
p2058
I80
sS'flops_cycle'
p2059
F0.459245
sS'cycles'
p2060
F2229746.40625
sa(dp2061
S'num_runs'
p2062
I64
sS'total_sum'
p2063
F28638819.578138
sS'block_size'
p2064
I84
sS'flops_cycle'
p2065
F0.470048
sS'cycles'
p2066
F2521886.484375
sa(dp2067
S'num_runs'
p2068
I64
sS'total_sum'
p2069
F32964849.129606
sS'block_size'
p2070
I88
sS'flops_cycle'
p2071
F0.470188
sS'cycles'
p2072
F2898721.234375
sa(dp2073
S'num_runs'
p2074
I32
sS'total_sum'
p2075
F5.9012298171881766e+175
sS'block_size'
p2076
I92
sS'flops_cycle'
p2077
F0.468919
sS'cycles'
p2078
F3321206.8125
sa(dp2079
S'num_runs'
p2080
I32
sS'total_sum'
p2081
F21040162.679684
sS'block_size'
p2082
I96
sS'flops_cycle'
p2083
F0.462853
sS'cycles'
p2084
F3822964.875
sa(dp2085
S'num_runs'
p2086
I32
sS'total_sum'
p2087
F1.617613068966562e+91
sS'block_size'
p2088
I100
sS'flops_cycle'
p2089
F0.469399
sS'cycles'
p2090
F4260771.0
sa(dp2091
S'num_runs'
p2092
I32
sS'total_sum'
p2093
F26560328.250728
sS'block_size'
p2094
I104
sS'flops_cycle'
p2095
F0.475411
sS'cycles'
p2096
F4732173.125
sa(dp2097
S'num_runs'
p2098
I32
sS'total_sum'
p2099
F9.464298321392445e+41
sS'block_size'
p2100
I108
sS'flops_cycle'
p2101
F0.477022
sS'cycles'
p2102
F5281563.9375
sa(dp2103
S'num_runs'
p2104
I32
sS'total_sum'
p2105
F2.1027935614407592e+273
sS'block_size'
p2106
I112
sS'flops_cycle'
p2107
F0.468286
sS'cycles'
p2108
F6000303.46875
sa(dp2109
S'num_runs'
p2110
I16
sS'total_sum'
p2111
F1.6017893119073608e+184
sS'block_size'
p2112
I116
sS'flops_cycle'
p2113
F0.479119
sS'cycles'
p2114
F6515688.875
sa(dp2115
S'num_runs'
p2116
I16
sS'total_sum'
p2117
F20137050.798081
sS'block_size'
p2118
I120
sS'flops_cycle'
p2119
F0.477829
sS'cycles'
p2120
F7232720.5
sa(dp2121
S'num_runs'
p2122
I16
sS'total_sum'
p2123
F3.367856485654055e+128
sS'block_size'
p2124
I124
sS'flops_cycle'
p2125
F0.456961
sS'cycles'
p2126
F8344803.0625
sa(dp2127
S'num_runs'
p2128
I8
sS'total_sum'
p2129
F11957944.905814
sS'block_size'
p2130
I128
sS'flops_cycle'
p2131
F0.329401
sS'cycles'
p2132
F12733139.5
sa(dp2133
S'num_runs'
p2134
I16
sS'total_sum'
p2135
F26792175.893419
sS'block_size'
p2136
I132
sS'flops_cycle'
p2137
F0.464069
sS'cycles'
p2138
F9912187.625
sa(dp2139
S'num_runs'
p2140
I16
sS'total_sum'
p2141
F29356439.854208
sS'block_size'
p2142
I136
sS'flops_cycle'
p2143
F0.445879
sS'cycles'
p2144
F11283129.8125
sa(dp2145
S'num_runs'
p2146
I16
sS'total_sum'
p2147
F32125207.547675
sS'block_size'
p2148
I140
sS'flops_cycle'
p2149
F0.465246
sS'cycles'
p2150
F11795917.1875
sa(dp2151
S'num_runs'
p2152
I8
sS'total_sum'
p2153
F17119973.430957
sS'block_size'
p2154
I144
sS'flops_cycle'
p2155
F0.437936
sS'cycles'
p2156
F13636635.625
sa(dp2157
S'num_runs'
p2158
I8
sS'total_sum'
p2159
F18739573.105315
sS'block_size'
p2160
I148
sS'flops_cycle'
p2161
F0.450402
sS'cycles'
p2162
F14395107.0
sa(dp2163
S'num_runs'
p2164
I8
sS'total_sum'
p2165
F4.740285737509131e+199
sS'block_size'
p2166
I152
sS'flops_cycle'
p2167
F0.450634
sS'cycles'
p2168
F15586085.125
sa(dp2169
S'num_runs'
p2170
I8
sS'total_sum'
p2171
F21995173.067915
sS'block_size'
p2172
I156
sS'flops_cycle'
p2173
F0.450411
sS'cycles'
p2174
F16857568.0
sa(dp2175
S'num_runs'
p2176
I8
sS'total_sum'
p2177
F8.859871781256938e+96
sS'block_size'
p2178
I160
sS'flops_cycle'
p2179
F0.371621
sS'cycles'
p2180
F22043949.75
sa(dp2181
S'num_runs'
p2182
I8
sS'total_sum'
p2183
F25481841.923327
sS'block_size'
p2184
I164
sS'flops_cycle'
p2185
F0.448952
sS'cycles'
p2186
F19649941.75
sa(dp2187
S'num_runs'
p2188
I8
sS'total_sum'
p2189
F1.7449731456042698e+133
sS'block_size'
p2190
I168
sS'flops_cycle'
p2191
F0.436868
sS'cycles'
p2192
F21707409.25
sa(dp2193
S'num_runs'
p2194
I8
sS'total_sum'
p2195
F29474239.591335
sS'block_size'
p2196
I172
sS'flops_cycle'
p2197
F0.449798
sS'cycles'
p2198
F22625458.0
sa(dp2199
S'num_runs'
p2200
I4
sS'total_sum'
p2201
F5.051023032287571e+81
sS'block_size'
p2202
I176
sS'flops_cycle'
p2203
F0.427867
sS'cycles'
p2204
F25483528.25
sa(dp2205
S'num_runs'
p2206
I4
sS'total_sum'
p2207
F2.4890447798690613e+209
sS'block_size'
p2208
I180
sS'flops_cycle'
p2209
F0.445371
sS'cycles'
p2210
F26189378.25
sa(dp2211
S'num_runs'
p2212
I4
sS'total_sum'
p2213
F17067398.780084
sS'block_size'
p2214
I184
sS'flops_cycle'
p2215
F0.436424
sS'cycles'
p2216
F28547911.75
sa(dp2217
S'num_runs'
p2218
I4
sS'total_sum'
p2219
F18230127.649288
sS'block_size'
p2220
I188
sS'flops_cycle'
p2221
F0.440375
sS'cycles'
p2222
F30177325.25
sa(dp2223
S'num_runs'
p2224
I4
sS'total_sum'
p2225
F6.789014040253495e+258
sS'block_size'
p2226
I192
sS'flops_cycle'
p2227
F0.33783
sS'cycles'
p2228
F41902029.5
sa(dp2229
S'num_runs'
p2230
I4
sS'total_sum'
p2231
F5.390946571006798e+235
sS'block_size'
p2232
I196
sS'flops_cycle'
p2233
F0.436053
sS'cycles'
p2234
F34534919.5
sa(dp2235
S'num_runs'
p2236
I4
sS'total_sum'
p2237
F21997256.318923
sS'block_size'
p2238
I200
sS'flops_cycle'
p2239
F0.42686
sS'cycles'
p2240
F37483031.75
sa(dp2241
S'num_runs'
p2242
I4
sS'total_sum'
p2243
F23357757.682946
sS'block_size'
p2244
I204
sS'flops_cycle'
p2245
F0.429847
sS'cycles'
p2246
F39500843.0
sa(dp2247
S'num_runs'
p2248
I4
sS'total_sum'
p2249
F8.47066664405422e+90
sS'block_size'
p2250
I208
sS'flops_cycle'
p2251
F0.407052
sS'cycles'
p2252
F44215080.25
sa(dp2253
S'num_runs'
p2254
I4
sS'total_sum'
p2255
F26234266.598609
sS'block_size'
p2256
I212
sS'flops_cycle'
p2257
F0.42682
sS'cycles'
p2258
F44647024.5
sa(dp2259
S'num_runs'
p2260
I4
sS'total_sum'
p2261
F4.45366433578686e+82
sS'block_size'
p2262
I216
sS'flops_cycle'
p2263
F0.422948
sS'cycles'
p2264
F47654559.25
sa(dp2265
S'num_runs'
p2266
I2
sS'total_sum'
p2267
F13362799.244115
sS'block_size'
p2268
I220
sS'flops_cycle'
p2269
F0.425334
sS'cycles'
p2270
F50068931.5
sa(dp2271
S'num_runs'
p2272
I2
sS'total_sum'
p2273
F14100545.614415
sS'block_size'
p2274
I224
sS'flops_cycle'
p2275
F0.353171
sS'cycles'
p2276
F63648682.5
sa(dp2277
S'num_runs'
p2278
I2
sS'total_sum'
p2279
F14871685.207727
sS'block_size'
p2280
I228
sS'flops_cycle'
p2281
F0.423397
sS'cycles'
p2282
F55986998.0
sa(dp2283
S'num_runs'
p2284
I2
sS'total_sum'
p2285
F15660630.281402
sS'block_size'
p2286
I232
sS'flops_cycle'
p2287
F0.422521
sS'cycles'
p2288
F59107980.0
sa(dp2289
S'num_runs'
p2290
I2
sS'total_sum'
p2291
F16497649.236244
sS'block_size'
p2292
I236
sS'flops_cycle'
p2293
F0.425643
sS'cycles'
p2294
F61761842.5
sa(dp2295
S'num_runs'
p2296
I2
sS'total_sum'
p2297
F17354055.059864
sS'block_size'
p2298
I240
sS'flops_cycle'
p2299
F0.393935
sS'cycles'
p2300
F70184196.5
sa(dp2301
S'num_runs'
p2302
I2
sS'total_sum'
p2303
F18151053.839676
sS'block_size'
p2304
I244
sS'flops_cycle'
p2305
F0.422976
sS'cycles'
p2306
F68688434.5
sa(dp2307
S'num_runs'
p2308
I2
sS'total_sum'
p2309
F5.62938041074647e+306
sS'block_size'
p2310
I248
sS'flops_cycle'
p2311
F0.421569
sS'cycles'
p2312
F72362948.0
sa(dp2313
S'num_runs'
p2314
I2
sS'total_sum'
p2315
F2.3012988708217776e+147
sS'block_size'
p2316
I252
sS'flops_cycle'
p2317
F0.423371
sS'cycles'
p2318
F75598079.5
sa(dp2319
S'num_runs'
p2320
I1
sS'total_sum'
p2321
F1.1366651733182772e+242
sS'block_size'
p2322
I256
sS'flops_cycle'
p2323
F0.245637
sS'cycles'
p2324
F136601805.0
sa(dp2325
S'num_runs'
p2326
I2
sS'total_sum'
p2327
F21909357.111837
sS'block_size'
p2328
I260
sS'flops_cycle'
p2329
F0.425034
sS'cycles'
p2330
F82703938.5
sa(dp2331
S'num_runs'
p2332
I2
sS'total_sum'
p2333
F1.180673991825309e+143
sS'block_size'
p2334
I264
sS'flops_cycle'
p2335
F0.421426
sS'cycles'
p2336
F87321272.0
sa(dp2337
S'num_runs'
p2338
I2
sS'total_sum'
p2339
F24063076.016991
sS'block_size'
p2340
I268
sS'flops_cycle'
p2341
F0.422697
sS'cycles'
p2342
F91076256.0
sa(dp2343
S'num_runs'
p2344
I1
sS'total_sum'
p2345
F10084136.531765
sS'block_size'
p2346
I272
sS'flops_cycle'
p2347
F0.36836
sS'cycles'
p2348
F109260879.0
sa(dp2349
S'num_runs'
p2350
I2
sS'total_sum'
p2351
F26290063.657518
sS'block_size'
p2352
I276
sS'flops_cycle'
p2353
F0.421932
sS'cycles'
p2354
F99658514.5
sa(dp2355
S'num_runs'
p2356
I1
sS'total_sum'
p2357
F7.217672914588575e+24
sS'block_size'
p2358
I280
sS'flops_cycle'
p2359
F0.419144
sS'cycles'
p2360
F104746905.0
sa(dp2361
S'num_runs'
p2362
I1
sS'total_sum'
p2363
F2.2630981354357926e+185
sS'block_size'
p2364
I284
sS'flops_cycle'
p2365
F0.421723
sS'cycles'
p2366
F108631947.0
sa(dp2367
S'num_runs'
p2368
I1
sS'total_sum'
p2369
F11985736.948799
sS'block_size'
p2370
I288
sS'flops_cycle'
p2371
F0.346904
sS'cycles'
p2372
F137720536.0
sa(dp2373
S'num_runs'
p2374
I1
sS'total_sum'
p2375
F1.4341207419264482e+163
sS'block_size'
p2376
I292
sS'flops_cycle'
p2377
F0.422544
sS'cycles'
p2378
F117843831.0
sa(dp2379
S'num_runs'
p2380
I1
sS'total_sum'
p2381
F13011360.867294
sS'block_size'
p2382
I296
sS'flops_cycle'
p2383
F0.419653
sS'cycles'
p2384
F123599082.0
sa(dp2385
S'num_runs'
p2386
I1
sS'total_sum'
p2387
F1.068522688537418e+227
sS'block_size'
p2388
I300
sS'flops_cycle'
p2389
F0.42041
sS'cycles'
p2390
F128446137.0
sa(dp2391
S'num_runs'
p2392
I1
sS'total_sum'
p2393
F14100726.605311
sS'block_size'
p2394
I304
sS'flops_cycle'
p2395
F0.354982
sS'cycles'
p2396
F158286524.0
sa(dp2397
S'num_runs'
p2398
I1
sS'total_sum'
p2399
F14668329.648105
sS'block_size'
p2400
I308
sS'flops_cycle'
p2401
F0.42154
sS'cycles'
p2402
F138625692.0
sa(dp2403
S'num_runs'
p2404
I1
sS'total_sum'
p2405
F1.3120241158245556e+232
sS'block_size'
p2406
I312
sS'flops_cycle'
p2407
F0.41945
sS'cycles'
p2408
F144815064.0
sa(dp2409
S'num_runs'
p2410
I1
sS'total_sum'
p2411
F15791615.98831
sS'block_size'
p2412
I316
sS'flops_cycle'
p2413
F0.420461
sS'cycles'
p2414
F150094617.0
sa(dp2415
S'num_runs'
p2416
I1
sS'total_sum'
p2417
F16396581.308148
sS'block_size'
p2418
I320
sS'flops_cycle'
p2419
F0.304396
sS'cycles'
p2420
F215298568.0
sa(dp2421
S'num_runs'
p2422
I1
sS'total_sum'
p2423
F4.0035366334763644e+287
sS'block_size'
p2424
I324
sS'flops_cycle'
p2425
F0.421537
sS'cycles'
p2426
F161372477.0
sa(dp2427
S'num_runs'
p2428
I1
sS'total_sum'
p2429
F1.7175847674940274e+239
sS'block_size'
p2430
I328
sS'flops_cycle'
p2431
F0.419438
sS'cycles'
p2432
F168261187.0
sa(dp2433
S'num_runs'
p2434
I1
sS'total_sum'
p2435
F1493224102016.8872
sS'block_size'
p2436
I332
sS'flops_cycle'
p2437
F0.421967
sS'cycles'
p2438
F173446658.0
sa(dp2439
S'num_runs'
p2440
I1
sS'total_sum'
p2441
F19047434.514203
sS'block_size'
p2442
I336
sS'flops_cycle'
p2443
F0.354895
sS'cycles'
p2444
F213770643.0
sa(dp2445
S'num_runs'
p2446
I1
sS'total_sum'
p2447
F4.704356735381887e+33
sS'block_size'
p2448
I340
sS'flops_cycle'
p2449
F0.422426
sS'cycles'
p2450
F186087130.0
sa(dp2451
S'num_runs'
p2452
I1
sS'total_sum'
p2453
F20375896.746189
sS'block_size'
p2454
I344
sS'flops_cycle'
p2455
F0.419721
sS'cycles'
p2456
F193974629.0
sa(dp2457
S'num_runs'
p2458
I1
sS'total_sum'
p2459
F6.8244650711885e+297
sS'block_size'
p2460
I348
sS'flops_cycle'
p2461
F0.421708
sS'cycles'
p2462
F199873901.0
sa(dp2463
S'num_runs'
p2464
I1
sS'total_sum'
p2465
F21814783.344491
sS'block_size'
p2466
I352
sS'flops_cycle'
p2467
F0.332276
sS'cycles'
p2468
F262517644.0
sa(dp2469
S'num_runs'
p2470
I1
sS'total_sum'
p2471
F3.0001302186657847e+55
sS'block_size'
p2472
I356
sS'flops_cycle'
p2473
F0.422029
sS'cycles'
p2474
F213814722.0
sa(dp2475
S'num_runs'
p2476
I1
sS'total_sum'
p2477
F23387925.181916
sS'block_size'
p2478
I360
sS'flops_cycle'
p2479
F0.420067
sS'cycles'
p2480
F222136114.0
sa(dp2481
S'num_runs'
p2482
I1
sS'total_sum'
p2483
F24178567.264793
sS'block_size'
p2484
I364
sS'flops_cycle'
p2485
F0.420795
sS'cycles'
p2486
F229225791.0
sa(dp2487
S'num_runs'
p2488
I1
sS'total_sum'
p2489
F24979644.002246
sS'block_size'
p2490
I368
sS'flops_cycle'
p2491
F0.354577
sS'cycles'
p2492
F281101067.0
sa(dp2493
S'num_runs'
p2494
I1
sS'total_sum'
p2495
F1.952698121998675e+18
sS'block_size'
p2496
I372
sS'flops_cycle'
p2497
F0.421526
sS'cycles'
p2498
F244250089.0
sa(dp2499
S'num_runs'
p2500
I1
sS'total_sum'
p2501
F26698647.525507
sS'block_size'
p2502
I376
sS'flops_cycle'
p2503
F0.420766
sS'cycles'
p2504
F252669771.0
sa(dp2505
S'num_runs'
p2506
I1
sS'total_sum'
p2507
F1.1877669656926434e+232
sS'block_size'
p2508
I380
sS'flops_cycle'
p2509
F0.420777
sS'cycles'
p2510
F260812867.0
sa(dp2511
S'num_runs'
p2512
I1
sS'total_sum'
p2513
F1.575662222069174e+103
sS'block_size'
p2514
I384
sS'flops_cycle'
p2515
F0.27217
sS'cycles'
p2516
F416085638.0
sa(dp2517
S'num_runs'
p2518
I1
sS'total_sum'
p2519
F29373275.583676
sS'block_size'
p2520
I388
sS'flops_cycle'
p2521
F0.420619
sS'cycles'
p2522
F277738515.0
sa(dp2523
S'num_runs'
p2524
I1
sS'total_sum'
p2525
F30283047.898415
sS'block_size'
p2526
I392
sS'flops_cycle'
p2527
F0.420521
sS'cycles'
p2528
F286484194.0
sa(dp2529
S'num_runs'
p2530
I1
sS'total_sum'
p2531
F2.9007377989164414e+271
sS'block_size'
p2532
I396
sS'flops_cycle'
p2533
F0.420695
sS'cycles'
p2534
F295221655.0
sa(dp2535
S'num_runs'
p2536
I1
sS'total_sum'
p2537
F32159116.738993
sS'block_size'
p2538
I400
sS'flops_cycle'
p2539
F0.353974
sS'cycles'
p2540
F361608249.0
sa(dp2541
S'num_runs'
p2542
I1
sS'total_sum'
p2543
F5.904659773693472e+39
sS'block_size'
p2544
I404
sS'flops_cycle'
p2545
F0.420589
sS'cycles'
p2546
F313556432.0
sa(dp2547
S'num_runs'
p2548
I1
sS'total_sum'
p2549
F34121419.831684
sS'block_size'
p2550
I408
sS'flops_cycle'
p2551
F0.420193
sS'cycles'
p2552
F323266913.0
sa(dp2553
S'num_runs'
p2554
I1
sS'total_sum'
p2555
F35128062.424238
sS'block_size'
p2556
I412
sS'flops_cycle'
p2557
F0.420345
sS'cycles'
p2558
F332747921.0
sa(dp2559
S'num_runs'
p2560
I1
sS'total_sum'
p2561
F36158243.850367
sS'block_size'
p2562
I416
sS'flops_cycle'
p2563
F0.330341
sS'cycles'
p2564
F435861053.0
sa(dp2565
S'num_runs'
p2566
I1
sS'total_sum'
p2567
F37219746.0657
sS'block_size'
p2568
I420
sS'flops_cycle'
p2569
F0.419415
sS'cycles'
p2570
F353291708.0
sa(dp2571
S'num_runs'
p2572
I1
sS'total_sum'
p2573
F38276098.137506
sS'block_size'
p2574
I424
sS'flops_cycle'
p2575
F0.420659
sS'cycles'
p2576
F362407768.0
sa(dp2577
S'num_runs'
p2578
I1
sS'total_sum'
p2579
F1.7341977622373632e+150
sS'block_size'
p2580
I428
sS'flops_cycle'
p2581
F0.4052
sS'cycles'
p2582
F386983167.0
sa(dp2583
S'num_runs'
p2584
I1
sS'total_sum'
p2585
F1.159638401142342e+241
sS'block_size'
p2586
I432
sS'flops_cycle'
p2587
F0.335703
sS'cycles'
p2588
F480314935.0
sa(dp2589
S'num_runs'
p2590
I1
sS'total_sum'
p2591
F5.901228481411039e+264
sS'block_size'
p2592
I436
sS'flops_cycle'
p2593
F0.406811
sS'cycles'
p2594
F407470816.0
sa(dp2595
S'num_runs'
p2596
I1
sS'total_sum'
p2597
F42651734.165603
sS'block_size'
p2598
I440
sS'flops_cycle'
p2599
F0.381807
sS'cycles'
p2600
F446214887.0
sa(dp2601
S'num_runs'
p2602
I1
sS'total_sum'
p2603
F5.795646491916944e+210
sS'block_size'
p2604
I444
sS'flops_cycle'
p2605
F0.394172
sS'cycles'
p2606
F444112483.0
sa(dp2607
S'num_runs'
p2608
I1
sS'total_sum'
p2609
F8.236041255549461e+41
sS'block_size'
p2610
I448
sS'flops_cycle'
p2611
F0.283555
sS'cycles'
p2612
F634201728.0
sa(dp2613
S'num_runs'
p2614
I1
sS'total_sum'
p2615
F46270796.740065
sS'block_size'
p2616
I452
sS'flops_cycle'
p2617
F0.390012
sS'cycles'
p2618
F473552096.0
sa(dp2619
S'num_runs'
p2620
I1
sS'total_sum'
p2621
F47570780.560192
sS'block_size'
p2622
I456
sS'flops_cycle'
p2623
F0.397713
sS'cycles'
p2624
F476820760.0
sa(dp2625
S'num_runs'
p2626
I1
sS'total_sum'
p2627
F8.087983371265685e+143
sS'block_size'
p2628
I460
sS'flops_cycle'
p2629
F0.39188
sS'cycles'
p2630
F496764447.0
sa(dp2631
S'num_runs'
p2632
I1
sS'total_sum'
p2633
F49988410.457514
sS'block_size'
p2634
I464
sS'flops_cycle'
p2635
F0.336926
sS'cycles'
p2636
F592993227.0
sa(dp2637
S'num_runs'
p2638
I1
sS'total_sum'
p2639
F51294801.530398
sS'block_size'
p2640
I468
sS'flops_cycle'
p2641
F0.391994
sS'cycles'
p2642
F522984089.0
sa(dp2643
S'num_runs'
p2644
I1
sS'total_sum'
p2645
F7.888540868738095e+286
sS'block_size'
p2646
I472
sS'flops_cycle'
p2647
F0.361985
sS'cycles'
p2648
F580985651.0
sa(dp2649
S'num_runs'
p2650
I1
sS'total_sum'
p2651
F7.398491284568988e+136
sS'block_size'
p2652
I476
sS'flops_cycle'
p2653
F0.342762
sS'cycles'
p2654
F629300079.0
sa(dp2655
S'num_runs'
p2656
I1
sS'total_sum'
p2657
F3.654211977716435e+235
sS'block_size'
p2658
I480
sS'flops_cycle'
p2659
F0.304915
sS'cycles'
p2660
F725395191.0
sa(dp2661
S'num_runs'
p2662
I1
sS'total_sum'
p2663
F56744934.063931
sS'block_size'
p2664
I484
sS'flops_cycle'
p2665
F0.343408
sS'cycles'
p2666
F660320941.0
sa(dp2667
S'num_runs'
p2668
I1
sS'total_sum'
p2669
F58300892.24614
sS'block_size'
p2670
I488
sS'flops_cycle'
p2671
F0.366122
sS'cycles'
p2672
F634839520.0
sa(dp2673
S'num_runs'
p2674
I1
sS'total_sum'
p2675
F59749220.78715
sS'block_size'
p2676
I492
sS'flops_cycle'
p2677
F0.32656
sS'cycles'
p2678
F729393875.0
sa(dp2679
S'num_runs'
p2680
I1
sS'total_sum'
p2681
F60861978.882172
sS'block_size'
p2682
I496
sS'flops_cycle'
p2683
F0.305655
sS'cycles'
p2684
F798443251.0
sa(dp2685
S'num_runs'
p2686
I1
sS'total_sum'
p2687
F1.239032063716524e+136
sS'block_size'
p2688
I500
sS'flops_cycle'
p2689
F0.331654
sS'cycles'
p2690
F753797098.0
sa(dp2691
S'num_runs'
p2692
I1
sS'total_sum'
p2693
F64426310.60685
sS'block_size'
p2694
I504
sS'flops_cycle'
p2695
F0.339164
sS'cycles'
p2696
F754938589.0
sa(dp2697
S'num_runs'
p2698
I1
sS'total_sum'
p2699
F65632883.212626
sS'block_size'
p2700
I508
sS'flops_cycle'
p2701
F0.342069
sS'cycles'
p2702
F766490731.0
sa(dp2703
S'num_runs'
p2704
I1
sS'total_sum'
p2705
F67316960.811671
sS'block_size'
p2706
I512
sS'flops_cycle'
p2707
F0.12099
sS'cycles'
p2708
F2218661754.0
sa(dp2709
S'num_runs'
p2710
I1
sS'total_sum'
p2711
F69070583.960828
sS'block_size'
p2712
I516
sS'flops_cycle'
p2713
F0.272752
sS'cycles'
p2714
F1007421914.0
sas.